Archive member included because of file (symbol)

C:/Program Files (x86)/ChipON IDE/KungFu32/ChiponCC32/ccr1_issue_v0/lib/libcrtv1.a(adddf3.o)
                              ./source/system.o (__adddf3)
C:/Program Files (x86)/ChipON IDE/KungFu32/ChiponCC32/ccr1_issue_v0/lib/libcrtv1.a(addsf3.o)
                              ./source/system.o (__addsf3)
C:/Program Files (x86)/ChipON IDE/KungFu32/ChiponCC32/ccr1_issue_v0/lib/libcrtv1.a(divdf3.o)
                              ./source/system.o (__divdf3)
C:/Program Files (x86)/ChipON IDE/KungFu32/ChiponCC32/ccr1_issue_v0/lib/libcrtv1.a(divsf3.o)
                              ./driver/motor.o (__divsf3)
C:/Program Files (x86)/ChipON IDE/KungFu32/ChiponCC32/ccr1_issue_v0/lib/libcrtv1.a(fixunsdfsi.o)
                              ./source/canreceive.o (__fixunsdfsi)
C:/Program Files (x86)/ChipON IDE/KungFu32/ChiponCC32/ccr1_issue_v0/lib/libcrtv1.a(fixunssfsi.o)
                              ./source/canreceive.o (__fixunssfsi)
C:/Program Files (x86)/ChipON IDE/KungFu32/ChiponCC32/ccr1_issue_v0/lib/libcrtv1.a(floatsidf.o)
                              ./source/canreceive.o (__floatsidf)
C:/Program Files (x86)/ChipON IDE/KungFu32/ChiponCC32/ccr1_issue_v0/lib/libcrtv1.a(floatsisf.o)
                              ./driver/motor.o (__floatsisf)
C:/Program Files (x86)/ChipON IDE/KungFu32/ChiponCC32/ccr1_issue_v0/lib/libcrtv1.a(floatunsisf.o)
                              ./source/canreceive.o (__floatunsisf)
C:/Program Files (x86)/ChipON IDE/KungFu32/ChiponCC32/ccr1_issue_v0/lib/libcrtv1.a(gedf2.o)
                              ./source/displayhelper.o (__gtdf2)
C:/Program Files (x86)/ChipON IDE/KungFu32/ChiponCC32/ccr1_issue_v0/lib/libcrtv1.a(gesf2.o)
                              ./source/system.o (__gesf2)
C:/Program Files (x86)/ChipON IDE/KungFu32/ChiponCC32/ccr1_issue_v0/lib/libcrtv1.a(ledf2.o)
                              ./source/displayhelper.o (__ltdf2)
C:/Program Files (x86)/ChipON IDE/KungFu32/ChiponCC32/ccr1_issue_v0/lib/libcrtv1.a(muldf3.o)
                              ./source/canreceive.o (__muldf3)
C:/Program Files (x86)/ChipON IDE/KungFu32/ChiponCC32/ccr1_issue_v0/lib/libcrtv1.a(mulsf3.o)
                              ./source/canreceive.o (__mulsf3)
C:/Program Files (x86)/ChipON IDE/KungFu32/ChiponCC32/ccr1_issue_v0/lib/libcrtv1.a(subdf3.o)
                              ./source/system.o (__subdf3)
C:/Program Files (x86)/ChipON IDE/KungFu32/ChiponCC32/ccr1_issue_v0/lib/libcrtv1.a(subsf3.o)
                              ./source/system.o (__subsf3)
C:/Program Files (x86)/ChipON IDE/KungFu32/ChiponCC32/ccr1_issue_v0/lib/libcrtv1.a(truncdfsf2.o)
                              ./source/system.o (__truncdfsf2)
C:/Program Files (x86)/ChipON IDE/KungFu32/ChiponCC32/ccr1_issue_v0/lib/libcrtv1.a(__clzsi2.o)
                              C:/Program Files (x86)/ChipON IDE/KungFu32/ChiponCC32/ccr1_issue_v0/lib/libcrtv1.a(adddf3.o) (__clzsi2)

@@@@@Discarded input sections

 .text          0x00000000        0x0 ./system/src/kf32a_basic_adc.o
 .data          0x00000000        0x0 ./system/src/kf32a_basic_adc.o
 .bss           0x00000000        0x0 ./system/src/kf32a_basic_adc.o
 .text$ADC_Struct_Init
                0x00000000       0x52 ./system/src/kf32a_basic_adc.o
 .text$ADC_Delay_Configuration
                0x00000000       0x48 ./system/src/kf32a_basic_adc.o
 .text$ADC_Delay_Struct_Init
                0x00000000       0x14 ./system/src/kf32a_basic_adc.o
 .text$ADC_Analog_Watchdog_Configuration
                0x00000000       0x9c ./system/src/kf32a_basic_adc.o
 .text$ADC_Analog_Watchdog_Struct_Init
                0x00000000       0x2c ./system/src/kf32a_basic_adc.o
 .text$ADC_Watchdog_Single_Channel_Enable
                0x00000000       0x1a ./system/src/kf32a_basic_adc.o
 .text$ADC_Scan_Mode_Enable
                0x00000000       0x1a ./system/src/kf32a_basic_adc.o
 .text$ADC_Bosssel_Comparator_Calibration
                0x00000000       0x1a ./system/src/kf32a_basic_adc.o
 .text$ADC_Bosssel_Calibration
                0x00000000       0x1a ./system/src/kf32a_basic_adc.o
 .text$ADC_Trim_Current_Intensity_Bias
                0x00000000       0x1a ./system/src/kf32a_basic_adc.o
 .text$ADC_Analog_Clock_Config
                0x00000000       0x2c ./system/src/kf32a_basic_adc.o
 .text$ADC_Data_Align_Config
                0x00000000       0x28 ./system/src/kf32a_basic_adc.o
 .text$ADC_Clock_Source_Config
                0x00000000       0x28 ./system/src/kf32a_basic_adc.o
 .text$ADC_Regular_Channel_DMA_Cmd
                0x00000000       0x1a ./system/src/kf32a_basic_adc.o
 .text$ADC_High_Priority_Channel_DMA_Cmd
                0x00000000       0x2e ./system/src/kf32a_basic_adc.o
 .text$ADC_Double_Mode_Config
                0x00000000       0x30 ./system/src/kf32a_basic_adc.o
 .text$ADC_Reference_Voltage_Config
                0x00000000       0x2c ./system/src/kf32a_basic_adc.o
 .text$ADC_Analog_Watchdog_Channel_Config
                0x00000000       0x2c ./system/src/kf32a_basic_adc.o
 .text$ADC_Regular_Channel_Watchdog_Enable
                0x00000000       0x1a ./system/src/kf32a_basic_adc.o
 .text$ADC_External_Trig_Conv_Enable
                0x00000000       0x1e ./system/src/kf32a_basic_adc.o
 .text$ADC_External_Trig_Conv_Config
                0x00000000       0x2c ./system/src/kf32a_basic_adc.o
 .text$ADC_Regular_Sequencer_Length_Config
                0x00000000       0x38 ./system/src/kf32a_basic_adc.o
 .text$ADC_Regular_Channel_TxCCRy_Trig_Enable
                0x00000000       0x3e ./system/src/kf32a_basic_adc.o
 .text$ADC_Continuous_Mode_Cmd
                0x00000000       0x1a ./system/src/kf32a_basic_adc.o
 .text$ADC_Disc_Mode_Channel_Count_Config
                0x00000000       0x38 ./system/src/kf32a_basic_adc.o
 .text$ADC_Disc_Mode_Cmd
                0x00000000       0x1a ./system/src/kf32a_basic_adc.o
 .text$ADC_High_Priority_Watchdog_Enable
                0x00000000       0x1a ./system/src/kf32a_basic_adc.o
 .text$ADC_HPExternal_Trig_Conv_Enable
                0x00000000       0x1e ./system/src/kf32a_basic_adc.o
 .text$ADC_High_Priority_Channel_Config
                0x00000000       0x54 ./system/src/kf32a_basic_adc.o
 .text$ADC_High_Priority_Sequencer_Length_Config
                0x00000000       0x38 ./system/src/kf32a_basic_adc.o
 .text$ADC_Set_HPChannel_Conv_Value_Offset
                0x00000000       0x22 ./system/src/kf32a_basic_adc.o
 .text$ADC_HPExternal_Trig_Conv_Config
                0x00000000       0x2c ./system/src/kf32a_basic_adc.o
 .text$ADC_Software_HPStart_Conv
                0x00000000        0xe ./system/src/kf32a_basic_adc.o
 .text$ADC_HPAuto_Conv_Cmd
                0x00000000       0x1a ./system/src/kf32a_basic_adc.o
 .text$ADC_HPDisc_Mode_Cmd
                0x00000000       0x1a ./system/src/kf32a_basic_adc.o
 .text$ADC_Get_HPConversion_Data
                0x00000000       0x28 ./system/src/kf32a_basic_adc.o
 .text$ADC_Set_INT_Enable
                0x00000000       0x42 ./system/src/kf32a_basic_adc.o
 .text$ADC_Clear_INT_Flag
                0x00000000       0x64 ./system/src/kf32a_basic_adc.o
 .text$ADC_Get_INT_Status
                0x00000000       0x4a ./system/src/kf32a_basic_adc.o
 .text          0x00000000        0x0 ./system/src/kf32a_basic_aes.o
 .data          0x00000000        0x0 ./system/src/kf32a_basic_aes.o
 .bss           0x00000000        0x0 ./system/src/kf32a_basic_aes.o
 .text$SFR_Config
                0x00000000       0x18 ./system/src/kf32a_basic_aes.o
 .text$AES_Reset
                0x00000000       0x2c ./system/src/kf32a_basic_aes.o
 .text$AES_Configuration
                0x00000000       0x58 ./system/src/kf32a_basic_aes.o
 .text$AES_Struct_Init
                0x00000000       0x2c ./system/src/kf32a_basic_aes.o
 .text$AES_KEY0_DATA
                0x00000000       0x14 ./system/src/kf32a_basic_aes.o
 .text$AES_KEY1_DATA
                0x00000000       0x14 ./system/src/kf32a_basic_aes.o
 .text$AES_KEY2_DATA
                0x00000000       0x14 ./system/src/kf32a_basic_aes.o
 .text$AES_KEY3_DATA
                0x00000000       0x14 ./system/src/kf32a_basic_aes.o
 .text$AES_INPUT0_DATA
                0x00000000       0x14 ./system/src/kf32a_basic_aes.o
 .text$AES_INPUT1_DATA
                0x00000000       0x14 ./system/src/kf32a_basic_aes.o
 .text$AES_INPUT2_DATA
                0x00000000       0x14 ./system/src/kf32a_basic_aes.o
 .text$AES_INPUT3_DATA
                0x00000000       0x14 ./system/src/kf32a_basic_aes.o
 .text$GET_AES_OUTPUT0_DATA
                0x00000000       0x14 ./system/src/kf32a_basic_aes.o
 .text$GET_AES_OUTPUT1_DATA
                0x00000000       0x14 ./system/src/kf32a_basic_aes.o
 .text$GET_AES_OUTPUT2_DATA
                0x00000000       0x14 ./system/src/kf32a_basic_aes.o
 .text$GET_AES_OUTPUT3_DATA
                0x00000000       0x14 ./system/src/kf32a_basic_aes.o
 .text$AES_Get_Flag_Status
                0x00000000       0x18 ./system/src/kf32a_basic_aes.o
 .text$AES_Start
                0x00000000       0x10 ./system/src/kf32a_basic_aes.o
 .text$AES_CLR_Flag_Status
                0x00000000       0x30 ./system/src/kf32a_basic_aes.o
 .text          0x00000000        0x0 ./system/src/kf32a_basic_atim.o
 .data          0x00000000        0x0 ./system/src/kf32a_basic_atim.o
 .bss           0x00000000        0x0 ./system/src/kf32a_basic_atim.o
 .text$SFR_Config
                0x00000000       0x18 ./system/src/kf32a_basic_atim.o
 .text$ATIM_X_Configuration
                0x00000000       0x6c ./system/src/kf32a_basic_atim.o
 .text$ATIM_Z_Configuration
                0x00000000       0x70 ./system/src/kf32a_basic_atim.o
 .text$ATIM_Struct_Init
                0x00000000       0x3c ./system/src/kf32a_basic_atim.o
 .text$ATIM_X_Cmd
                0x00000000       0x1e ./system/src/kf32a_basic_atim.o
 .text$ATIM_Z_Cmd
                0x00000000       0x1e ./system/src/kf32a_basic_atim.o
 .text$ATIM_X_Updata_Configuration
                0x00000000       0x54 ./system/src/kf32a_basic_atim.o
 .text$ATIM_Z_Updata_Configuration
                0x00000000       0x54 ./system/src/kf32a_basic_atim.o
 .text$ATIM_X_Updata_Cmd
                0x00000000       0x22 ./system/src/kf32a_basic_atim.o
 .text$ATIM_Z_Updata_Cmd
                0x00000000       0x22 ./system/src/kf32a_basic_atim.o
 .text$ATIM_X_Set_Counter
                0x00000000       0x12 ./system/src/kf32a_basic_atim.o
 .text$ATIM_Z_Set_Counter
                0x00000000       0x12 ./system/src/kf32a_basic_atim.o
 .text$ATIM_X_Set_Period
                0x00000000       0x12 ./system/src/kf32a_basic_atim.o
 .text$ATIM_Z_Set_Period
                0x00000000       0x12 ./system/src/kf32a_basic_atim.o
 .text$ATIM_X_Set_Prescaler
                0x00000000       0x12 ./system/src/kf32a_basic_atim.o
 .text$ATIM_Z_Set_Prescaler
                0x00000000       0x12 ./system/src/kf32a_basic_atim.o
 .text$ATIM_X_Counter_Mode_Config
                0x00000000       0x2c ./system/src/kf32a_basic_atim.o
 .text$ATIM_Z_Counter_Mode_Config
                0x00000000       0x2c ./system/src/kf32a_basic_atim.o
 .text$ATIM_X_Clock_Config
                0x00000000       0x2c ./system/src/kf32a_basic_atim.o
 .text$ATIM_Z_Clock_Config
                0x00000000       0x2c ./system/src/kf32a_basic_atim.o
 .text$ATIM_X_Postscaler_Config
                0x00000000       0x34 ./system/src/kf32a_basic_atim.o
 .text$ATIM_Z_Postscaler_Config
                0x00000000       0x34 ./system/src/kf32a_basic_atim.o
 .text$ATIM_X_External_Pulse_Sync_Config
                0x00000000       0x1e ./system/src/kf32a_basic_atim.o
 .text$ATIM_Z_External_Pulse_Sync_Config
                0x00000000       0x1e ./system/src/kf32a_basic_atim.o
 .text$ATIM_X_Work_Mode_Config
                0x00000000       0x1e ./system/src/kf32a_basic_atim.o
 .text$ATIM_Z_Work_Mode_Config
                0x00000000       0x1e ./system/src/kf32a_basic_atim.o
 .text$ATIM_X_Get_Direction
                0x00000000       0x1c ./system/src/kf32a_basic_atim.o
 .text$ATIM_Z_Get_Direction
                0x00000000       0x1c ./system/src/kf32a_basic_atim.o
 .text$ATIM_X_Overflow_AD_Enable
                0x00000000       0x1e ./system/src/kf32a_basic_atim.o
 .text$ATIM_Z_Overflow_AD_Enable
                0x00000000       0x1e ./system/src/kf32a_basic_atim.o
 .text$ATIM_X_Underflow_AD_Enable
                0x00000000       0x1e ./system/src/kf32a_basic_atim.o
 .text$ATIM_Z_Underflow_AD_Enable
                0x00000000       0x1e ./system/src/kf32a_basic_atim.o
 .text$ATIM_X_TriggerAD_Config
                0x00000000       0x1e ./system/src/kf32a_basic_atim.o
 .text$ATIM_Z_TriggerAD_Config
                0x00000000       0x1e ./system/src/kf32a_basic_atim.o
 .text$ATIM_X_Set_TriggerAD_Signal
                0x00000000       0x1c ./system/src/kf32a_basic_atim.o
 .text$ATIM_Z_Set_TriggerAD_Signal
                0x00000000       0x12 ./system/src/kf32a_basic_atim.o
 .text$ATIM_X_Updata_Immediately_Config
                0x00000000       0x22 ./system/src/kf32a_basic_atim.o
 .text$ATIM_Z_Updata_Immediately_Config
                0x00000000       0x22 ./system/src/kf32a_basic_atim.o
 .text$ATIM_X_Updata_Output_Ctl
                0x00000000       0x22 ./system/src/kf32a_basic_atim.o
 .text$ATIM_Z_Updata_Output_Ctl
                0x00000000       0x22 ./system/src/kf32a_basic_atim.o
 .text$ATIM_X_Updata_Enable
                0x00000000       0x22 ./system/src/kf32a_basic_atim.o
 .text$ATIM_Z_Updata_Enable
                0x00000000       0x22 ./system/src/kf32a_basic_atim.o
 .text$ATIM_X_Set_Updata_Counter
                0x00000000       0x16 ./system/src/kf32a_basic_atim.o
 .text$ATIM_Z_Set_Updata_Counter
                0x00000000       0x16 ./system/src/kf32a_basic_atim.o
 .text$ATIM_X_Slave_Mode_Config
                0x00000000       0x3c ./system/src/kf32a_basic_atim.o
 .text$ATIM_Z_Slave_Mode_Config
                0x00000000       0x3c ./system/src/kf32a_basic_atim.o
 .text$ATIM_Master_Mode_Config
                0x00000000       0x30 ./system/src/kf32a_basic_atim.o
 .text$ATIM_Master_Slave_Snyc_Enable
                0x00000000       0x22 ./system/src/kf32a_basic_atim.o
 .text$ATIM_Trigger_Select_Config
                0x00000000       0x34 ./system/src/kf32a_basic_atim.o
 .text$ATIM_Timer_Unite_Enable
                0x00000000       0x22 ./system/src/kf32a_basic_atim.o
 .text$ATIM_X_Get_Counter
                0x00000000       0x18 ./system/src/kf32a_basic_atim.o
 .text$ATIM_Z_Get_Counter
                0x00000000       0x18 ./system/src/kf32a_basic_atim.o
 .text$ATIM_X_Get_Period
                0x00000000       0x18 ./system/src/kf32a_basic_atim.o
 .text$ATIM_Z_Get_Period
                0x00000000       0x18 ./system/src/kf32a_basic_atim.o
 .text$ATIM_X_Get_Prescaler
                0x00000000       0x18 ./system/src/kf32a_basic_atim.o
 .text$ATIM_Z_Get_Prescaler
                0x00000000       0x18 ./system/src/kf32a_basic_atim.o
 .text$ATIM_X_Updata_INT_Enable
                0x00000000       0x22 ./system/src/kf32a_basic_atim.o
 .text$ATIM_Z_Updata_INT_Enable
                0x00000000       0x22 ./system/src/kf32a_basic_atim.o
 .text$ATIM_X_Overflow_INT_Enable
                0x00000000       0x22 ./system/src/kf32a_basic_atim.o
 .text$ATIM_Z_Overflow_INT_Enable
                0x00000000       0x22 ./system/src/kf32a_basic_atim.o
 .text$ATIM_X_Trigger_INT_Enable
                0x00000000       0x22 ./system/src/kf32a_basic_atim.o
 .text$ATIM_X_Updata_DMA_Enable
                0x00000000       0x22 ./system/src/kf32a_basic_atim.o
 .text$ATIM_Z_Updata_DMA_Enable
                0x00000000       0x22 ./system/src/kf32a_basic_atim.o
 .text$ATIM_X_Trigger_DMA_Enable
                0x00000000       0x22 ./system/src/kf32a_basic_atim.o
 .text$ATIM_X_Get_Updata_INT_Flag
                0x00000000       0x22 ./system/src/kf32a_basic_atim.o
 .text$ATIM_Z_Get_Updata_INT_Flag
                0x00000000       0x22 ./system/src/kf32a_basic_atim.o
 .text$ATIM_X_Get_Overflow_INT_Flag
                0x00000000       0x22 ./system/src/kf32a_basic_atim.o
 .text$ATIM_Z_Get_Overflow_INT_Flag
                0x00000000       0x22 ./system/src/kf32a_basic_atim.o
 .text$ATIM_X_Get_Trigger_INT_Flag
                0x00000000       0x22 ./system/src/kf32a_basic_atim.o
 .text$ATIM_X_Generate_Trigger_Config
                0x00000000       0x22 ./system/src/kf32a_basic_atim.o
 .text$ATIM_X_Get_Updata_DMA_INT_Flag
                0x00000000       0x20 ./system/src/kf32a_basic_atim.o
 .text$ATIM_Z_Get_Updata_DMA_INT_Flag
                0x00000000       0x20 ./system/src/kf32a_basic_atim.o
 .text$ATIM_X_Get_Trigger_DMA_INT_Flag
                0x00000000       0x20 ./system/src/kf32a_basic_atim.o
 .text$ATIM_X_Clear_Updata_INT_Flag
                0x00000000       0x2e ./system/src/kf32a_basic_atim.o
 .text$ATIM_Z_Clear_Updata_INT_Flag
                0x00000000       0x2e ./system/src/kf32a_basic_atim.o
 .text$ATIM_X_Clear_Overflow_INT_Flag
                0x00000000       0x2e ./system/src/kf32a_basic_atim.o
 .text$ATIM_Z_Clear_Overflow_INT_Flag
                0x00000000       0x2e ./system/src/kf32a_basic_atim.o
 .text$ATIM_X_Clear_Trigger_INT_Flag
                0x00000000       0x2e ./system/src/kf32a_basic_atim.o
 .text$ECCP_Compare_Configuration
                0x00000000       0x68 ./system/src/kf32a_basic_atim.o
 .text$ECCP_Capture_Configuration
                0x00000000       0x7c ./system/src/kf32a_basic_atim.o
 .text$ECCP_Capture_Struct_Init
                0x00000000       0x20 ./system/src/kf32a_basic_atim.o
 .text$ECCP_PWM_Configuration
                0x00000000      0x1a4 ./system/src/kf32a_basic_atim.o
 .text$ECCP_PWM_Struct_Init
                0x00000000       0x44 ./system/src/kf32a_basic_atim.o
 .text$ECCP_Capture_Mode_Config
                0x00000000       0x48 ./system/src/kf32a_basic_atim.o
 .text$ECCP_Compare_Mode_Config
                0x00000000       0x48 ./system/src/kf32a_basic_atim.o
 .text$ECCP_PWM_Mode_Config
                0x00000000       0x38 ./system/src/kf32a_basic_atim.o
 .text$ECCP_Get_Capture_Result
                0x00000000       0x2a ./system/src/kf32a_basic_atim.o
 .text$ECCP_Get_Compare_Result
                0x00000000       0x2a ./system/src/kf32a_basic_atim.o
 .text$ECCP_Set_Compare_Result
                0x00000000       0x2c ./system/src/kf32a_basic_atim.o
 .text$ECCP_Generate_Trigger_Config
                0x00000000       0x46 ./system/src/kf32a_basic_atim.o
 .text$ECCP_PWM_Input_Enable
                0x00000000       0x22 ./system/src/kf32a_basic_atim.o
 .text$ECCP_Input_XOR_Enable
                0x00000000       0x22 ./system/src/kf32a_basic_atim.o
 .text$ECCP_Single_Pulse_Enable
                0x00000000       0x22 ./system/src/kf32a_basic_atim.o
 .text$ECCP_Single_Pulse_Shut_Enable
                0x00000000       0x22 ./system/src/kf32a_basic_atim.o
 .text$ECCP_PWM_Restart_Enable
                0x00000000       0x22 ./system/src/kf32a_basic_atim.o
 .text$ECCP_Dead_Time_Config
                0x00000000       0x6c ./system/src/kf32a_basic_atim.o
 .text$ECCP_Channel_Output_Control
                0x00000000       0x54 ./system/src/kf32a_basic_atim.o
 .text$ECCP_Channel_Output_Mode
                0x00000000       0x48 ./system/src/kf32a_basic_atim.o
 .text$ECCP_Channel_Work_State_Config
                0x00000000       0x48 ./system/src/kf32a_basic_atim.o
 .text$ECCP_Get_Channel_Work_State
                0x00000000       0x30 ./system/src/kf32a_basic_atim.o
 .text$ECCP_CHANNEL4_Shutdown_SEL
                0x00000000       0x22 ./system/src/kf32a_basic_atim.o
 .text$ECCP_Channel_Shutdown_Signal
                0x00000000       0x48 ./system/src/kf32a_basic_atim.o
 .text$ECCP_Channel_Pin_Ctl
                0x00000000       0x54 ./system/src/kf32a_basic_atim.o
 .text$ECCP_Zero_Clock_Config
                0x00000000       0x34 ./system/src/kf32a_basic_atim.o
 .text$ECCP_Channel_Pin_Tristate_Enable
                0x00000000       0x58 ./system/src/kf32a_basic_atim.o
 .text$ECCP_Channel_INT_Enable
                0x00000000       0x46 ./system/src/kf32a_basic_atim.o
 .text$ECCP_X_Turn_off_DMA_Enable
                0x00000000       0x22 ./system/src/kf32a_basic_atim.o
 .text$ECCP_Channel_DMA_Enable
                0x00000000       0x46 ./system/src/kf32a_basic_atim.o
 .text$ECCP_Get_Channel_Trigger_INT_Flag
                0x00000000       0x2e ./system/src/kf32a_basic_atim.o
 .text$ECCP_X_Get_Turn_off_DMA_Flag
                0x00000000       0x20 ./system/src/kf32a_basic_atim.o
 .text$ECCP_Get_Trigger_DMA_INT_Flag
                0x00000000       0x2e ./system/src/kf32a_basic_atim.o
 .text$ECCP_Clear_Channel_INT_Flag
                0x00000000       0x64 ./system/src/kf32a_basic_atim.o
 .text$ECCP_PWM_Move_Phase_Enable
                0x00000000       0x22 ./system/src/kf32a_basic_atim.o
 .text$ECCP_Channel_Zero_Detect_Sequential_Ctl
                0x00000000       0x48 ./system/src/kf32a_basic_atim.o
 .text$ECCP_Get_Channel_Zero_Detection_State
                0x00000000       0x2e ./system/src/kf32a_basic_atim.o
 .text$ECCP_Clear_Channel_Zero_Detection_State
                0x00000000       0x2c ./system/src/kf32a_basic_atim.o
 .text$ECCP_Channel_Zero_Detect_Enable
                0x00000000       0x48 ./system/src/kf32a_basic_atim.o
 .text$ECCP_Channel_Zero_Voltage_Config
                0x00000000       0x50 ./system/src/kf32a_basic_atim.o
 .text          0x00000000        0x0 ./system/src/kf32a_basic_bkp.o
 .data          0x00000000        0x0 ./system/src/kf32a_basic_bkp.o
 .bss           0x00000000        0x0 ./system/src/kf32a_basic_bkp.o
 .text$SFR_Config
                0x00000000       0x18 ./system/src/kf32a_basic_bkp.o
 .text$BKP_Reset
                0x00000000       0x10 ./system/src/kf32a_basic_bkp.o
 .text$BKP_Write_And_Read_Enable
                0x00000000       0xe0 ./system/src/kf32a_basic_bkp.o
 .text$BKP_Reset_Enable
                0x00000000       0x1c ./system/src/kf32a_basic_bkp.o
 .text$BKP_Pin_Effective_Level_Config
                0x00000000       0x40 ./system/src/kf32a_basic_bkp.o
 .text$BKP_Pin_Enable
                0x00000000       0x40 ./system/src/kf32a_basic_bkp.o
 .text$BKP_RTC_Clock_Config
                0x00000000       0x30 ./system/src/kf32a_basic_bkp.o
 .text$BKP_External_Clock_Bypass_Enable
                0x00000000       0x3c ./system/src/kf32a_basic_bkp.o
 .text$BKP_Data_Config
                0x00000000       0x1c ./system/src/kf32a_basic_bkp.o
 .text$BKP_Get_Data
                0x00000000       0x24 ./system/src/kf32a_basic_bkp.o
 .text$BKP_Pin_TAMP_INT_Enable
                0x00000000       0x40 ./system/src/kf32a_basic_bkp.o
 .text$BKP_Get_Pin_TAMP_INT_Flag
                0x00000000       0x30 ./system/src/kf32a_basic_bkp.o
 .text$BKP_Clear_Pin_TAMP_INT_Flag
                0x00000000       0x54 ./system/src/kf32a_basic_bkp.o
 .data$static$pmwrenbkp.1929
                0x00000000        0x4 ./system/src/kf32a_basic_bkp.o
 .data$static$bkpregclrbkp.1930
                0x00000000        0x4 ./system/src/kf32a_basic_bkp.o
 .data$static$bkpwrbkp.1931
                0x00000000        0x4 ./system/src/kf32a_basic_bkp.o
 .text          0x00000000        0x0 ./system/src/kf32a_basic_btim.o
 .data          0x00000000        0x0 ./system/src/kf32a_basic_btim.o
 .bss           0x00000000        0x0 ./system/src/kf32a_basic_btim.o
 .text$SFR_Config
                0x00000000       0x18 ./system/src/kf32a_basic_btim.o
 .text$BTIM_Configuration
                0x00000000       0x98 ./system/src/kf32a_basic_btim.o
 .text$BTIM_Struct_Init
                0x00000000       0x48 ./system/src/kf32a_basic_btim.o
 .text$BTIM_Cmd
                0x00000000       0x1e ./system/src/kf32a_basic_btim.o
 .text$BTIM_Set_Counter
                0x00000000       0x12 ./system/src/kf32a_basic_btim.o
 .text$BTIM_Set_Period
                0x00000000       0x12 ./system/src/kf32a_basic_btim.o
 .text$BTIM_Set_Prescaler
                0x00000000       0x12 ./system/src/kf32a_basic_btim.o
 .text$BTIM_Counter_Mode_Config
                0x00000000       0x2c ./system/src/kf32a_basic_btim.o
 .text$BTIM_Clock_Config
                0x00000000       0x28 ./system/src/kf32a_basic_btim.o
 .text$BTIM_External_Pulse_Sync_Config
                0x00000000       0x1e ./system/src/kf32a_basic_btim.o
 .text$BTIM_Work_Mode_Config
                0x00000000       0x1e ./system/src/kf32a_basic_btim.o
 .text$BTIM_Generate_Trigger_Config
                0x00000000       0x1e ./system/src/kf32a_basic_btim.o
 .text$BTIM_Single_Pulse_Enable
                0x00000000       0x1e ./system/src/kf32a_basic_btim.o
 .text$BTIM_Single_Pulse_Shut_Enable
                0x00000000       0x1e ./system/src/kf32a_basic_btim.o
 .text$BTIM_Updata_Immediately_Config
                0x00000000       0x1e ./system/src/kf32a_basic_btim.o
 .text$BTIM_Master_Slave_Snyc_Config
                0x00000000       0x1e ./system/src/kf32a_basic_btim.o
 .text$BTIM_Trigger_Select_Config
                0x00000000       0x2c ./system/src/kf32a_basic_btim.o
 .text$BTIM_Slave_Mode_Config
                0x00000000       0x28 ./system/src/kf32a_basic_btim.o
 .text$BTIM_Master_Mode_Config
                0x00000000       0x28 ./system/src/kf32a_basic_btim.o
 .text$BTIM_Updata_Rising_Edge_Config
                0x00000000       0x1e ./system/src/kf32a_basic_btim.o
 .text$BTIM_Updata_Enable
                0x00000000       0x1e ./system/src/kf32a_basic_btim.o
 .text$BTIM_Get_Direction
                0x00000000       0x1c ./system/src/kf32a_basic_btim.o
 .text$BTIM_Get_Counter
                0x00000000       0x10 ./system/src/kf32a_basic_btim.o
 .text$BTIM_Get_Period
                0x00000000       0x10 ./system/src/kf32a_basic_btim.o
 .text$BTIM_Get_Prescaler
                0x00000000       0x10 ./system/src/kf32a_basic_btim.o
 .text$BTIM_Trigger_DMA_Enable
                0x00000000       0x1e ./system/src/kf32a_basic_btim.o
 .text$BTIM_Updata_DMA_Enable
                0x00000000       0x1e ./system/src/kf32a_basic_btim.o
 .text$BTIM_Overflow_INT_Enable
                0x00000000       0x1e ./system/src/kf32a_basic_btim.o
 .text$BTIM_Trigger_INT_Enable
                0x00000000       0x1e ./system/src/kf32a_basic_btim.o
 .text$BTIM_Updata_INT_Enable
                0x00000000       0x1e ./system/src/kf32a_basic_btim.o
 .text$BTIM_Get_Trigger_DMA_INT_Status
                0x00000000       0x1c ./system/src/kf32a_basic_btim.o
 .text$BTIM_Get_Updata_DMA_INT_Status
                0x00000000       0x1c ./system/src/kf32a_basic_btim.o
 .text$BTIM_Get_Overflow_INT_Status
                0x00000000       0x1c ./system/src/kf32a_basic_btim.o
 .text$BTIM_Get_Trigger_INT_Status
                0x00000000       0x1c ./system/src/kf32a_basic_btim.o
 .text$BTIM_Get_Updata_INT_Status
                0x00000000       0x1c ./system/src/kf32a_basic_btim.o
 .text$BTIM_Get_Trigger_DMA_INT_Flag
                0x00000000       0x1c ./system/src/kf32a_basic_btim.o
 .text$BTIM_Get_Updata_DMA_INT_Flag
                0x00000000       0x1c ./system/src/kf32a_basic_btim.o
 .text$BTIM_Get_Overflow_INT_Flag
                0x00000000       0x1c ./system/src/kf32a_basic_btim.o
 .text$BTIM_Get_Trigger_INT_Flag
                0x00000000       0x1c ./system/src/kf32a_basic_btim.o
 .text$BTIM_Get_Updata_INT_Flag
                0x00000000       0x1c ./system/src/kf32a_basic_btim.o
 .text$BTIM_Clear_Overflow_INT_Flag
                0x00000000       0x24 ./system/src/kf32a_basic_btim.o
 .text$BTIM_Clear_Trigger_INT_Flag
                0x00000000       0x24 ./system/src/kf32a_basic_btim.o
 .text$BTIM_Clear_Updata_INT_Flag
                0x00000000       0x22 ./system/src/kf32a_basic_btim.o
 .text          0x00000000        0x0 ./system/src/kf32a_basic_can.o
 .data          0x00000000        0x0 ./system/src/kf32a_basic_can.o
 .bss           0x00000000        0x0 ./system/src/kf32a_basic_can.o
 .text$CAN_Struct_Init
                0x00000000       0x44 ./system/src/kf32a_basic_can.o
 .text$CAN_Get_Receive_Message_Counter
                0x00000000       0x28 ./system/src/kf32a_basic_can.o
 .text$CAN_Cmd  0x00000000       0x1a ./system/src/kf32a_basic_can.o
 .text$CAN_Clock_Source_Config
                0x00000000       0x28 ./system/src/kf32a_basic_can.o
 .text$CAN_Sleep_Mode_Enable
                0x00000000       0x1a ./system/src/kf32a_basic_can.o
 .text$CAN_Work_Mode_Config
                0x00000000       0x28 ./system/src/kf32a_basic_can.o
 .text$CAN_Bus_Sample_Times_Config
                0x00000000       0x1e ./system/src/kf32a_basic_can.o
 .text$CAN_Time_Segment_Config
                0x00000000       0x40 ./system/src/kf32a_basic_can.o
 .text$CAN_Sync_Jump_Width_Config
                0x00000000       0x34 ./system/src/kf32a_basic_can.o
 .text$CAN_Baud_Rate_Preset_Config
                0x00000000       0x30 ./system/src/kf32a_basic_can.o
 .text$CAN_Get_Error_Code
                0x00000000       0x74 ./system/src/kf32a_basic_can.o
 .text$CAN_Get_Error_Warning_Limit
                0x00000000       0x18 ./system/src/kf32a_basic_can.o
 .text$CAN_Get_Error_Counter
                0x00000000       0x3c ./system/src/kf32a_basic_can.o
 .text$CAN_Error_Warning_Limit_Config
                0x00000000       0x38 ./system/src/kf32a_basic_can.o
 .text$CAN_Error_Counter_Config
                0x00000000       0x54 ./system/src/kf32a_basic_can.o
 .text$CAN_Acceptance_Config
                0x00000000       0x10 ./system/src/kf32a_basic_can.o
 .text$CAN_Get_Acceptance
                0x00000000       0x16 ./system/src/kf32a_basic_can.o
 .text$CAN_Acceptance_Mask_Config
                0x00000000       0x10 ./system/src/kf32a_basic_can.o
 .text$CAN_Get_Acceptance_Mask
                0x00000000       0x16 ./system/src/kf32a_basic_can.o
 .text$CAN_Message_Struct_Init
                0x00000000       0x4a ./system/src/kf32a_basic_can.o
 .text$CAN_Clear_Buffer_Overflow_Flag
                0x00000000       0x3c ./system/src/kf32a_basic_can.o
 .text$CAN_Transmit_Single
                0x00000000       0x24 ./system/src/kf32a_basic_can.o
 .text$CAN_Transmit_Repeat
                0x00000000       0x2a ./system/src/kf32a_basic_can.o
 .text$CAN_Frame_Format_Config
                0x00000000       0x1e ./system/src/kf32a_basic_can.o
 .text$CAN_Remote_Request_Config
                0x00000000       0x1e ./system/src/kf32a_basic_can.o
 .text$CAN_Data_Length_Config
                0x00000000       0x30 ./system/src/kf32a_basic_can.o
 .text$CAN_Identification_Code_Config
                0x00000000       0x58 ./system/src/kf32a_basic_can.o
 .text          0x00000000        0x0 ./system/src/kf32a_basic_cfgl.o
 .data          0x00000000        0x0 ./system/src/kf32a_basic_cfgl.o
 .bss           0x00000000        0x0 ./system/src/kf32a_basic_cfgl.o
 .text$SFR_Config
                0x00000000       0x18 ./system/src/kf32a_basic_cfgl.o
 .text$CFGL_Reset
                0x00000000       0x2c ./system/src/kf32a_basic_cfgl.o
 .text$CFGL_Configuration
                0x00000000      0x1e4 ./system/src/kf32a_basic_cfgl.o
 .text$CFGL_Struct_Init
                0x00000000      0x174 ./system/src/kf32a_basic_cfgl.o
 .text$CFGL2_OUT_SYNCHRO_Enable
                0x00000000       0x1c ./system/src/kf32a_basic_cfgl.o
 .text$CFGL1_OUT_SYNCHRO_Enable
                0x00000000       0x1c ./system/src/kf32a_basic_cfgl.o
 .text$CFGL2_FALLINT_Enable
                0x00000000       0x28 ./system/src/kf32a_basic_cfgl.o
 .text$CFGL2_RISEINT_Enable
                0x00000000       0x28 ./system/src/kf32a_basic_cfgl.o
 .text$CFGL1_FALLINT_Enable
                0x00000000       0x28 ./system/src/kf32a_basic_cfgl.o
 .text$CFGL1_RISEINT_Enable
                0x00000000       0x28 ./system/src/kf32a_basic_cfgl.o
 .text$CFGL1_Get_INT_Flag
                0x00000000       0x1c ./system/src/kf32a_basic_cfgl.o
 .text$CFGL2_Get_INT_Flag
                0x00000000       0x1c ./system/src/kf32a_basic_cfgl.o
 .text$CFGL1_Clear_RISEINT_Flag
                0x00000000       0x24 ./system/src/kf32a_basic_cfgl.o
 .text$CFGL1_Clear_FALLINT_Flag
                0x00000000       0x24 ./system/src/kf32a_basic_cfgl.o
 .text$CFGL1_Clear_RISEFALLINT_Flag
                0x00000000       0x2c ./system/src/kf32a_basic_cfgl.o
 .text$CFGL2_Clear_RISEINT_Flag
                0x00000000       0x20 ./system/src/kf32a_basic_cfgl.o
 .text$CFGL2_Clear_RISEFALLINT_Flag
                0x00000000       0x28 ./system/src/kf32a_basic_cfgl.o
 .text$CFGL2_Clear_FALLINT_Flag
                0x00000000       0x20 ./system/src/kf32a_basic_cfgl.o
 .text$CFGL2_OUT_STATE
                0x00000000       0x1c ./system/src/kf32a_basic_cfgl.o
 .text$CFGL1_OUT_STATE
                0x00000000       0x1c ./system/src/kf32a_basic_cfgl.o
 .text          0x00000000        0x0 ./system/src/kf32a_basic_cmp.o
 .data          0x00000000        0x0 ./system/src/kf32a_basic_cmp.o
 .bss           0x00000000        0x0 ./system/src/kf32a_basic_cmp.o
 .text$SFR_Config
                0x00000000       0x18 ./system/src/kf32a_basic_cmp.o
 .text$CMP_Reset
                0x00000000       0x2c ./system/src/kf32a_basic_cmp.o
 .text$CMP_Configuration
                0x00000000      0x208 ./system/src/kf32a_basic_cmp.o
 .text$CMP_Struct_Init
                0x00000000       0x4a ./system/src/kf32a_basic_cmp.o
 .text$CMP0_POSITIVE_INPUT_SELECT
                0x00000000       0x30 ./system/src/kf32a_basic_cmp.o
 .text$CMP0_NEGATIVE_INPUT_SELECT
                0x00000000       0x30 ./system/src/kf32a_basic_cmp.o
 .text$CMP1_POSITIVE_INPUT_SELECT
                0x00000000       0x30 ./system/src/kf32a_basic_cmp.o
 .text$CMP1_NEGATIVE_INPUT_SELECT
                0x00000000       0x30 ./system/src/kf32a_basic_cmp.o
 .text$CMP2_POSITIVE_INPUT_SELECT
                0x00000000       0x30 ./system/src/kf32a_basic_cmp.o
 .text$CMP2_NEGATIVE_INPUT_SELECT
                0x00000000       0x30 ./system/src/kf32a_basic_cmp.o
 .text$CMP3_POSITIVE_INPUT_SELECT
                0x00000000       0x44 ./system/src/kf32a_basic_cmp.o
 .text$CMP3_NEGATIVE_INPUT_SELECT
                0x00000000       0x30 ./system/src/kf32a_basic_cmp.o
 .text$CMP0_OUTPUT_POL_SELECT
                0x00000000       0x30 ./system/src/kf32a_basic_cmp.o
 .text$CMP1_OUTPUT_POL_SELECT
                0x00000000       0x30 ./system/src/kf32a_basic_cmp.o
 .text$CMP2_OUTPUT_POL_SELECT
                0x00000000       0x30 ./system/src/kf32a_basic_cmp.o
 .text$CMP3_OUTPUT_POL_SELECT
                0x00000000       0x30 ./system/src/kf32a_basic_cmp.o
 .text$CMP_OUTPUT_SELECT
                0x00000000       0x30 ./system/src/kf32a_basic_cmp.o
 .text$CMP0_Cmd
                0x00000000       0x1c ./system/src/kf32a_basic_cmp.o
 .text$CMP1_Cmd
                0x00000000       0x1c ./system/src/kf32a_basic_cmp.o
 .text$CMP2_Cmd
                0x00000000       0x1c ./system/src/kf32a_basic_cmp.o
 .text$CMP3_Cmd
                0x00000000       0x1c ./system/src/kf32a_basic_cmp.o
 .text$CMP0_Read_Output_State
                0x00000000       0x1c ./system/src/kf32a_basic_cmp.o
 .text$CMP1_Read_Output_State
                0x00000000       0x1c ./system/src/kf32a_basic_cmp.o
 .text$CMP2_Read_Output_State
                0x00000000       0x1c ./system/src/kf32a_basic_cmp.o
 .text$CMP3_Read_Output_State
                0x00000000       0x18 ./system/src/kf32a_basic_cmp.o
 .text$CMP0_Get_Updata_INT_Flag
                0x00000000       0x1c ./system/src/kf32a_basic_cmp.o
 .text$CMP1_Get_Updata_INT_Flag
                0x00000000       0x1c ./system/src/kf32a_basic_cmp.o
 .text$CMP2_Get_Updata_INT_Flag
                0x00000000       0x1c ./system/src/kf32a_basic_cmp.o
 .text$CMP3_Get_Updata_INT_Flag
                0x00000000       0x1c ./system/src/kf32a_basic_cmp.o
 .text$CMP_Trigger_Select_Config
                0x00000000       0x30 ./system/src/kf32a_basic_cmp.o
 .text$CMP0_Clear_Trigger_INT_Flag
                0x00000000       0x20 ./system/src/kf32a_basic_cmp.o
 .text$CMP1_Clear_Trigger_INT_Flag
                0x00000000       0x20 ./system/src/kf32a_basic_cmp.o
 .text$CMP2_Clear_Trigger_INT_Flag
                0x00000000       0x20 ./system/src/kf32a_basic_cmp.o
 .text$CMP3_Clear_Trigger_INT_Flag
                0x00000000       0x20 ./system/src/kf32a_basic_cmp.o
 .text$CMP0_INT_Enable
                0x00000000       0x1c ./system/src/kf32a_basic_cmp.o
 .text$CMP1_INT_Enable
                0x00000000       0x1c ./system/src/kf32a_basic_cmp.o
 .text$CMP2_INT_Enable
                0x00000000       0x1c ./system/src/kf32a_basic_cmp.o
 .text$CMP3_INT_Enable
                0x00000000       0x1c ./system/src/kf32a_basic_cmp.o
 .text$CMP_SluggishVoltage_Select
                0x00000000       0x30 ./system/src/kf32a_basic_cmp.o
 .text$CMP_HALLMODE_Select
                0x00000000       0x30 ./system/src/kf32a_basic_cmp.o
 .text$CMP_BEMF_Enable
                0x00000000       0x1c ./system/src/kf32a_basic_cmp.o
 .text$CMP_FLTINSEL_Select
                0x00000000       0x30 ./system/src/kf32a_basic_cmp.o
 .text          0x00000000        0x0 ./system/src/kf32a_basic_crc.o
 .data          0x00000000        0x0 ./system/src/kf32a_basic_crc.o
 .bss           0x00000000        0x0 ./system/src/kf32a_basic_crc.o
 .text$SFR_Config
                0x00000000       0x18 ./system/src/kf32a_basic_crc.o
 .text$CRC_Reset
                0x00000000       0x2c ./system/src/kf32a_basic_crc.o
 .text$CRC_Configuration
                0x00000000       0x4c ./system/src/kf32a_basic_crc.o
 .text$CRC_Struct_Init
                0x00000000       0x20 ./system/src/kf32a_basic_crc.o
 .text$CRC_INPUT_DATA
                0x00000000       0x14 ./system/src/kf32a_basic_crc.o
 .text$CRC_GET_RESULT
                0x00000000       0x14 ./system/src/kf32a_basic_crc.o
 .text$CRC_SET_INITVALUE
                0x00000000       0x14 ./system/src/kf32a_basic_crc.o
 .text$CRC_SET_PLN
                0x00000000       0x14 ./system/src/kf32a_basic_crc.o
 .text$CRC_SET_RXOR
                0x00000000       0x14 ./system/src/kf32a_basic_crc.o
 .text$CRC_SET_IDATA
                0x00000000       0x14 ./system/src/kf32a_basic_crc.o
 .text$CRC_GET_TEMP
                0x00000000       0x14 ./system/src/kf32a_basic_crc.o
 .text$CRC_SET_RSET
                0x00000000       0x10 ./system/src/kf32a_basic_crc.o
 .text          0x00000000        0x0 ./system/src/kf32a_basic_dac.o
 .data          0x00000000        0x0 ./system/src/kf32a_basic_dac.o
 .bss           0x00000000        0x0 ./system/src/kf32a_basic_dac.o
 .text$SFR_Config
                0x00000000       0x18 ./system/src/kf32a_basic_dac.o
 .text$DAC_Reset
                0x00000000       0x68 ./system/src/kf32a_basic_dac.o
 .text$DAC_Configuration
                0x00000000       0xa8 ./system/src/kf32a_basic_dac.o
 .text$DAC_Struct_Init
                0x00000000       0x4a ./system/src/kf32a_basic_dac.o
 .text$DAC_Cmd  0x00000000       0x1a ./system/src/kf32a_basic_dac.o
 .text$DAC_Software_Trigger_Cmd
                0x00000000       0x1a ./system/src/kf32a_basic_dac.o
 .text$DAC_DMA_Cmd
                0x00000000       0x1a ./system/src/kf32a_basic_dac.o
 .text$DAC_Output_Buffer_Config
                0x00000000       0x1e ./system/src/kf32a_basic_dac.o
 .text$DAC_Output_Port_Config
                0x00000000       0x1e ./system/src/kf32a_basic_dac.o
 .text$DAC_Write_Output_Data
                0x00000000       0x10 ./system/src/kf32a_basic_dac.o
 .text$DAC_Read_Output_Data
                0x00000000       0x18 ./system/src/kf32a_basic_dac.o
 .text$DAC_Calibration_Config
                0x00000000       0x58 ./system/src/kf32a_basic_dac.o
 .text$DAC_Calibration_Struct_Init
                0x00000000       0x26 ./system/src/kf32a_basic_dac.o
 .text          0x00000000        0x0 ./system/src/kf32a_basic_dma.o
 .data          0x00000000        0x0 ./system/src/kf32a_basic_dma.o
 .bss           0x00000000        0x0 ./system/src/kf32a_basic_dma.o
 .text$SFR_Config
                0x00000000       0x18 ./system/src/kf32a_basic_dma.o
 .text$DMA_Reset
                0x00000000       0x68 ./system/src/kf32a_basic_dma.o
 .text$DMA_Configuration
                0x00000000       0xa8 ./system/src/kf32a_basic_dma.o
 .text$DMA_Struct_Init
                0x00000000       0x50 ./system/src/kf32a_basic_dma.o
 .text$DMA_Transfer_Number_Config
                0x00000000       0x44 ./system/src/kf32a_basic_dma.o
 .text$DMA_Memory_To_Memory_Enable
                0x00000000       0x2c ./system/src/kf32a_basic_dma.o
 .text$DMA_Channel_Priority_Config
                0x00000000       0x44 ./system/src/kf32a_basic_dma.o
 .text$DMA_Peripheral_Data_Width_Config
                0x00000000       0x44 ./system/src/kf32a_basic_dma.o
 .text$DMA_Memory_Data_Width_Config
                0x00000000       0x44 ./system/src/kf32a_basic_dma.o
 .text$DMA_Peripheral_addr_increase_Enable
                0x00000000       0x2c ./system/src/kf32a_basic_dma.o
 .text$DMA_Memory_addr_increase_Enable
                0x00000000       0x2c ./system/src/kf32a_basic_dma.o
 .text$DMA_Loop_Mode_Enable
                0x00000000       0x2c ./system/src/kf32a_basic_dma.o
 .text$DMA_Transfer_Direction_Config
                0x00000000       0x2c ./system/src/kf32a_basic_dma.o
 .text$DMA_Transfer_Mode_Config
                0x00000000       0x2c ./system/src/kf32a_basic_dma.o
 .text$DMA_Oneshot_Enable
                0x00000000       0x2c ./system/src/kf32a_basic_dma.o
 .text$DMA_Channel_Enable
                0x00000000       0x2c ./system/src/kf32a_basic_dma.o
 .text$DMA_Peripheral_Start_Address_Config
                0x00000000       0x1a ./system/src/kf32a_basic_dma.o
 .text$DMA_Memory_Start_Address_Config
                0x00000000       0x1a ./system/src/kf32a_basic_dma.o
 .text$DMA_Get_Peripheral_Current_Address
                0x00000000       0x20 ./system/src/kf32a_basic_dma.o
 .text$DMA_Get_Memory_Current_Address
                0x00000000       0x20 ./system/src/kf32a_basic_dma.o
 .text$DMA_Get_Transfer_Number_Remain
                0x00000000       0x30 ./system/src/kf32a_basic_dma.o
 .text$DMA_Get_INT_Flag
                0x00000000       0x36 ./system/src/kf32a_basic_dma.o
 .text$DMA_Clear_INT_Flag
                0x00000000       0x34 ./system/src/kf32a_basic_dma.o
 .text$DMA_Set_INT_Enable
                0x00000000       0x52 ./system/src/kf32a_basic_dma.o
 .text$DMA_Get_Error_Transfer_INT_Flag
                0x00000000       0x34 ./system/src/kf32a_basic_dma.o
 .text$DMA_Get_Half_Transfer_INT_Flag
                0x00000000       0x34 ./system/src/kf32a_basic_dma.o
 .text$DMA_Get_Finish_Transfer_INT_Flag
                0x00000000       0x34 ./system/src/kf32a_basic_dma.o
 .text$DMA_Error_Transfer_INT_Enable
                0x00000000       0x50 ./system/src/kf32a_basic_dma.o
 .text$DMA_Half_Transfer_INT_Enable
                0x00000000       0x50 ./system/src/kf32a_basic_dma.o
 .text$DMA_Finish_Transfer_INT_Enable
                0x00000000       0x50 ./system/src/kf32a_basic_dma.o
 .text          0x00000000        0x0 ./system/src/kf32a_basic_exic.o
 .data          0x00000000        0x0 ./system/src/kf32a_basic_exic.o
 .bss           0x00000000        0x0 ./system/src/kf32a_basic_exic.o
 .text$SFR_Config
                0x00000000       0x18 ./system/src/kf32a_basic_exic.o
 .text$EXIC_Reset
                0x00000000       0x2c ./system/src/kf32a_basic_exic.o
 .text$EXIC_Configuration
                0x00000000       0xc4 ./system/src/kf32a_basic_exic.o
 .text$EXIC_Struct_Init
                0x00000000       0x66 ./system/src/kf32a_basic_exic.o
 .text$EXIC_Get_Write_Finish_INT_Flag
                0x00000000       0x1c ./system/src/kf32a_basic_exic.o
 .text$EXIC_Clear_Write_Finish_INT_Flag
                0x00000000       0x20 ./system/src/kf32a_basic_exic.o
 .text$EXIC_Get_Read_Finish_INT_Flag
                0x00000000       0x1c ./system/src/kf32a_basic_exic.o
 .text$EXIC_Clear_Read_Finish_INT_Flag
                0x00000000       0x20 ./system/src/kf32a_basic_exic.o
 .text$EXIC_Write_Buff
                0x00000000       0x14 ./system/src/kf32a_basic_exic.o
 .text$EXIC_Read_Buff
                0x00000000        0xc ./system/src/kf32a_basic_exic.o
 .text          0x00000000        0x0 ./system/src/kf32a_basic_flash.o
 .data          0x00000000        0x0 ./system/src/kf32a_basic_flash.o
 .bss           0x00000000        0x0 ./system/src/kf32a_basic_flash.o
 .indata$FLASH_Get_NonVolatile_Memory_Unlock_Status_RAM
                0x00000000       0x1c ./system/src/kf32a_basic_flash.o
 .text$FLASH_Unlock_ISP
                0x00000000       0x1c ./system/src/kf32a_basic_flash.o
 .indata$FLASH_Get_Flash_Unlock_Status_RAM
                0x00000000       0x1c ./system/src/kf32a_basic_flash.o
 .text$FLASH_Unlock_Code
                0x00000000       0x1c ./system/src/kf32a_basic_flash.o
 .indata$FLASH_Get_Config_Unlock_Status_RAM
                0x00000000       0x1c ./system/src/kf32a_basic_flash.o
 .text$FLASH_Unlock_User_Config
                0x00000000       0x1c ./system/src/kf32a_basic_flash.o
 .text$FLASH_Zone_Config
                0x00000000       0x1c ./system/src/kf32a_basic_flash.o
 .indata$FLASH_Standby_Mode_Config_RAM
                0x00000000       0x68 ./system/src/kf32a_basic_flash.o
 .indata$FLASH_Read_Mode_Config_RAM
                0x00000000       0x3c ./system/src/kf32a_basic_flash.o
 .indata$FLASH_Calibration_Updata_Enable_RAM
                0x00000000       0x60 ./system/src/kf32a_basic_flash.o
 .indata$FLASH_Information_Zone_Wipe_Unlock_Config_RAM
                0x00000000       0x60 ./system/src/kf32a_basic_flash.o
 .indata$FLASH_Half_Page_Write_Size_Config_RAM
                0x00000000       0x54 ./system/src/kf32a_basic_flash.o
 .indata$FLASH_Program_Cmd_Config_RAM
                0x00000000       0x58 ./system/src/kf32a_basic_flash.o
 .text$FLASH_Executive_Cmd
                0x00000000       0x3c ./system/src/kf32a_basic_flash.o
 .indata$FLASH_NonVolatile_Memory_ECC_Enable_RAM
                0x00000000       0x3c ./system/src/kf32a_basic_flash.o
 .indata$FLASH_Linear_Prefetch_Enable_RAM
                0x00000000       0x3c ./system/src/kf32a_basic_flash.o
 .indata$FLASH_Period_Number_Config_RAM
                0x00000000       0x54 ./system/src/kf32a_basic_flash.o
 .indata$FLASH_Program_Addr_Config_RAM
                0x00000000       0x54 ./system/src/kf32a_basic_flash.o
 .text$FLASH_Get_Program_Status
                0x00000000       0x1c ./system/src/kf32a_basic_flash.o
 .text$FLASH_Get_Wipe_Status
                0x00000000       0x1c ./system/src/kf32a_basic_flash.o
 .indata$FLASH_Get_Compute_Complete_Status_RAM
                0x00000000       0x1c ./system/src/kf32a_basic_flash.o
 .indata$FLASH_Clear_Compute_Complete_Status_RAM
                0x00000000       0x20 ./system/src/kf32a_basic_flash.o
 .indata$FLASH_Get_CFG_Error_Flag_RAM
                0x00000000       0x1c ./system/src/kf32a_basic_flash.o
 .indata$FLASH_Clear_CFG_Error_Flag_RAM
                0x00000000       0x1c ./system/src/kf32a_basic_flash.o
 .indata$FLASH_CheckSum_Addr_Config_RAM
                0x00000000       0x50 ./system/src/kf32a_basic_flash.o
 .indata$FLASH_Start_SIG_Compute_Enable_RAM
                0x00000000       0x3c ./system/src/kf32a_basic_flash.o
 .indata$FLASH_Get_CheckSum_Result_RAM
                0x00000000       0x40 ./system/src/kf32a_basic_flash.o
 .text$FLASH_Wipe_Configuration
                0x00000000       0xac ./system/src/kf32a_basic_flash.o
 .text$FLASH_Program_Configuration
                0x00000000      0x154 ./system/src/kf32a_basic_flash.o
 .text$Read_Flash_or_CFR
                0x00000000       0x78 ./system/src/kf32a_basic_flash.o
 .text$Read_Soft_Device_ID1
                0x00000000       0x20 ./system/src/kf32a_basic_flash.o
 .text$Read_Soft_Device_ID2
                0x00000000       0x20 ./system/src/kf32a_basic_flash.o
 .text$Read_Soft_Device_ID3
                0x00000000       0x20 ./system/src/kf32a_basic_flash.o
 .text$Read_Soft_Device_ID4
                0x00000000       0x20 ./system/src/kf32a_basic_flash.o
 .text          0x00000000        0x0 ./system/src/kf32a_basic_gpio.o
 .data          0x00000000        0x0 ./system/src/kf32a_basic_gpio.o
 .bss           0x00000000        0x0 ./system/src/kf32a_basic_gpio.o
 .text$GPIO_Reset
                0x00000000      0x144 ./system/src/kf32a_basic_gpio.o
 .text$GPIO_Pull_Up_Enable
                0x00000000       0x30 ./system/src/kf32a_basic_gpio.o
 .text$GPIO_Toggle_Pull_Up_Config
                0x00000000       0x18 ./system/src/kf32a_basic_gpio.o
 .text$GPIO_Pull_Down_Enable
                0x00000000       0x30 ./system/src/kf32a_basic_gpio.o
 .text$GPIO_Toggle_Pull_Down_Config
                0x00000000       0x18 ./system/src/kf32a_basic_gpio.o
 .text$GPIO_Open_Drain_Enable
                0x00000000       0x30 ./system/src/kf32a_basic_gpio.o
 .text$GPIO_Toggle_Open_Drain_Config
                0x00000000       0x18 ./system/src/kf32a_basic_gpio.o
 .text$GPIO_Speed_Config
                0x00000000       0x5a ./system/src/kf32a_basic_gpio.o
 .text$GPIO_Toggle_Speed_Config
                0x00000000       0x4a ./system/src/kf32a_basic_gpio.o
 .text$GPIO_Read_Input_Data
                0x00000000       0x18 ./system/src/kf32a_basic_gpio.o
 .text$GPIO_Read_Output_Data
                0x00000000       0x18 ./system/src/kf32a_basic_gpio.o
 .text          0x00000000        0x0 ./system/src/kf32a_basic_gptim.o
 .data          0x00000000        0x0 ./system/src/kf32a_basic_gptim.o
 .bss           0x00000000        0x0 ./system/src/kf32a_basic_gptim.o
 .text$GPTIM_Configuration
                0x00000000       0xd0 ./system/src/kf32a_basic_gptim.o
 .text$GPTIM_Struct_Init
                0x00000000       0x48 ./system/src/kf32a_basic_gptim.o
 .text$GPTIM_External_Pulse_Sync_Config
                0x00000000       0x1e ./system/src/kf32a_basic_gptim.o
 .text$GPTIM_Master_Slave_Snyc_Config
                0x00000000       0x1e ./system/src/kf32a_basic_gptim.o
 .text$GPTIM_Trigger_Select_Config
                0x00000000       0x2c ./system/src/kf32a_basic_gptim.o
 .text$GPTIM_Slave_Mode_Config
                0x00000000       0x28 ./system/src/kf32a_basic_gptim.o
 .text$GPTIM_Master_Mode_Config
                0x00000000       0x28 ./system/src/kf32a_basic_gptim.o
 .text$GPTIM_Updata_Rising_Edge_Config
                0x00000000       0x1e ./system/src/kf32a_basic_gptim.o
 .text$GPTIM_Trigger_DMA_Enable
                0x00000000       0x1e ./system/src/kf32a_basic_gptim.o
 .text$GPTIM_Updata_DMA_Enable
                0x00000000       0x1e ./system/src/kf32a_basic_gptim.o
 .text$GPTIM_Updata_INT_Enable
                0x00000000       0x1e ./system/src/kf32a_basic_gptim.o
 .text$GPTIM_Trigger_INT_Enable
                0x00000000       0x1e ./system/src/kf32a_basic_gptim.o
 .text$GPTIM_Generate_Trigger_Config
                0x00000000       0x1e ./system/src/kf32a_basic_gptim.o
 .text$GPTIM_Get_Direction
                0x00000000       0x1c ./system/src/kf32a_basic_gptim.o
 .text$GPTIM_Get_Counter
                0x00000000       0x38 ./system/src/kf32a_basic_gptim.o
 .text$GPTIM_Get_Period
                0x00000000       0x38 ./system/src/kf32a_basic_gptim.o
 .text$GPTIM_Get_Prescaler
                0x00000000       0x38 ./system/src/kf32a_basic_gptim.o
 .text$GPTIM_Clear_Trigger_INT_Flag
                0x00000000       0x26 ./system/src/kf32a_basic_gptim.o
 .text$GPTIM_Get_Overflow_INT_Flag
                0x00000000       0x1e ./system/src/kf32a_basic_gptim.o
 .text$GPTIM_Get_Updata_INT_Flag
                0x00000000       0x1e ./system/src/kf32a_basic_gptim.o
 .text$GPTIM_Get_Trigger_INT_Flag
                0x00000000       0x1e ./system/src/kf32a_basic_gptim.o
 .text$GPTIM_Get_Updata_DMA_INT_Flag
                0x00000000       0x1c ./system/src/kf32a_basic_gptim.o
 .text$GPTIM_Get_Trigger_DMA_INT_Flag
                0x00000000       0x1c ./system/src/kf32a_basic_gptim.o
 .text$CCP_Compare_Configuration
                0x00000000       0x84 ./system/src/kf32a_basic_gptim.o
 .text$CCP_Compare_Struct_Init
                0x00000000       0x1a ./system/src/kf32a_basic_gptim.o
 .text$CCP_Capture_Configuration
                0x00000000       0x8c ./system/src/kf32a_basic_gptim.o
 .text$CCP_Capture_Struct_Init
                0x00000000       0x26 ./system/src/kf32a_basic_gptim.o
 .text$CCP_PWM_Configuration
                0x00000000       0xd8 ./system/src/kf32a_basic_gptim.o
 .text$CCP_PWM_Struct_Init
                0x00000000       0x2c ./system/src/kf32a_basic_gptim.o
 .text$CCP_Capture_Mode_Config
                0x00000000       0x40 ./system/src/kf32a_basic_gptim.o
 .text$CCP_Compare_Mode_Config
                0x00000000       0x40 ./system/src/kf32a_basic_gptim.o
 .text$CCP_Get_Capture_Result
                0x00000000       0x48 ./system/src/kf32a_basic_gptim.o
 .text$CCP_Get_Compare_Result
                0x00000000       0x48 ./system/src/kf32a_basic_gptim.o
 .text$CCP_Compare_PWM_Signal_Clear
                0x00000000       0x3c ./system/src/kf32a_basic_gptim.o
 .text$CCP_Compare_Check_Config
                0x00000000       0x2c ./system/src/kf32a_basic_gptim.o
 .text$CCP_Single_Pulse_Shut_Enable
                0x00000000       0x1e ./system/src/kf32a_basic_gptim.o
 .text$CCP_Single_Pulse_Enable
                0x00000000       0x1e ./system/src/kf32a_basic_gptim.o
 .text$CCP_PWM_Input_Measurement_Config
                0x00000000       0x1e ./system/src/kf32a_basic_gptim.o
 .text$CCP_Input_XOR_Config
                0x00000000       0x1e ./system/src/kf32a_basic_gptim.o
 .text$CCP_Channel_DMA_Config
                0x00000000       0x36 ./system/src/kf32a_basic_gptim.o
 .text$CCP_Generate_Trigger_Config
                0x00000000       0x36 ./system/src/kf32a_basic_gptim.o
 .text$CCP_USART_Receive_Config
                0x00000000       0x1e ./system/src/kf32a_basic_gptim.o
 .text$CCP_Get_Channel_Trigger_INT_Flag
                0x00000000       0x2a ./system/src/kf32a_basic_gptim.o
 .text$CCP_Get_Trigger_DMA_INT_Flag
                0x00000000       0x2a ./system/src/kf32a_basic_gptim.o
 .text$CCP_Channel_INT_Config
                0x00000000       0x36 ./system/src/kf32a_basic_gptim.o
 .text$CCP_Clear_Channel_INT_Flag
                0x00000000       0x4c ./system/src/kf32a_basic_gptim.o
 .text          0x00000000        0x0 ./system/src/kf32a_basic_i2c.o
 .data          0x00000000        0x0 ./system/src/kf32a_basic_i2c.o
 .bss           0x00000000        0x0 ./system/src/kf32a_basic_i2c.o
 .text$SFR_Config
                0x00000000       0x18 ./system/src/kf32a_basic_i2c.o
 .text$I2C_Reset
                0x00000000       0xc0 ./system/src/kf32a_basic_i2c.o
 .text$I2C_Configuration
                0x00000000       0x78 ./system/src/kf32a_basic_i2c.o
 .text$I2C_Struct_Init
                0x00000000       0x38 ./system/src/kf32a_basic_i2c.o
 .text$I2C_Cmd  0x00000000       0x1a ./system/src/kf32a_basic_i2c.o
 .text$I2C_Bufr_Address_Config
                0x00000000       0x1a ./system/src/kf32a_basic_i2c.o
 .text$I2C_Generate_START
                0x00000000       0x1a ./system/src/kf32a_basic_i2c.o
 .text$I2C_Generate_STOP
                0x00000000       0x1a ./system/src/kf32a_basic_i2c.o
 .text$I2C_Ack_Config
                0x00000000       0x1a ./system/src/kf32a_basic_i2c.o
 .text$I2C_Ack_DATA_Config
                0x00000000       0x1a ./system/src/kf32a_basic_i2c.o
 .text$I2C_Call_Cmd
                0x00000000       0x1a ./system/src/kf32a_basic_i2c.o
 .text$I2C_Clock_Config
                0x00000000       0x2c ./system/src/kf32a_basic_i2c.o
 .text$I2C_MATCH_ADDRESS_Config
                0x00000000       0x1a ./system/src/kf32a_basic_i2c.o
 .text$I2C_SCL_Enable
                0x00000000       0x1a ./system/src/kf32a_basic_i2c.o
 .text$I2C_NMENA_Enable
                0x00000000       0x1a ./system/src/kf32a_basic_i2c.o
 .text$I2C_SMBUS_Enable
                0x00000000       0x1a ./system/src/kf32a_basic_i2c.o
 .text$I2C_SMBT_Config
                0x00000000       0x1a ./system/src/kf32a_basic_i2c.o
 .text$I2C_SMBus_ALERT_Config
                0x00000000       0x1a ./system/src/kf32a_basic_i2c.o
 .text$I2C_SendData
                0x00000000       0x10 ./system/src/kf32a_basic_i2c.o
 .text$I2C_SendData8
                0x00000000       0x12 ./system/src/kf32a_basic_i2c.o
 .text$I2C_ReceiveData
                0x00000000       0x24 ./system/src/kf32a_basic_i2c.o
 .text$I2C_ARP_Enable
                0x00000000       0x1a ./system/src/kf32a_basic_i2c.o
 .text$I2C_ADDR_Config
                0x00000000       0x58 ./system/src/kf32a_basic_i2c.o
 .text$I2C_MSK_Config
                0x00000000       0x5c ./system/src/kf32a_basic_i2c.o
 .text$I2C_BRGH_Config
                0x00000000       0x34 ./system/src/kf32a_basic_i2c.o
 .text$I2C_BRGL_Config
                0x00000000       0x38 ./system/src/kf32a_basic_i2c.o
 .text$I2C_Start_INT_Enable
                0x00000000       0x1e ./system/src/kf32a_basic_i2c.o
 .text$I2C_Stop_INT_Enable
                0x00000000       0x1e ./system/src/kf32a_basic_i2c.o
 .text$I2C_Ack_Fail_INT_Enable
                0x00000000       0x1e ./system/src/kf32a_basic_i2c.o
 .text$I2C_Arbitration_Lost_INT_Enable
                0x00000000       0x1e ./system/src/kf32a_basic_i2c.o
 .text$I2C_SMBus_Alert_INT_Enable
                0x00000000       0x1e ./system/src/kf32a_basic_i2c.o
 .text$I2C_SMBus_HostHead_INT_Enable
                0x00000000       0x1e ./system/src/kf32a_basic_i2c.o
 .text$I2C_SMBus_Device_Defaultaddress_INT_Enable
                0x00000000       0x1e ./system/src/kf32a_basic_i2c.o
 .text$I2C_ISIE_INT_Enable
                0x00000000       0x1e ./system/src/kf32a_basic_i2c.o
 .text$I2C_Receive_DMA_INT_Enable
                0x00000000       0x1e ./system/src/kf32a_basic_i2c.o
 .text$I2C_Transmit_DMA_INT_Enable
                0x00000000       0x1e ./system/src/kf32a_basic_i2c.o
 .text$I2C_Get_Start_Flag
                0x00000000       0x1c ./system/src/kf32a_basic_i2c.o
 .text$I2C_Clear_Start_Flag
                0x00000000       0x1c ./system/src/kf32a_basic_i2c.o
 .text$I2C_Get_Stop_Flag
                0x00000000       0x1c ./system/src/kf32a_basic_i2c.o
 .text$I2C_Clear_Stop_Flag
                0x00000000       0x1e ./system/src/kf32a_basic_i2c.o
 .text$I2C_Get_Address_Match_Flag
                0x00000000       0x1c ./system/src/kf32a_basic_i2c.o
 .text$I2C_Get_HighAddress_Flag
                0x00000000       0x1c ./system/src/kf32a_basic_i2c.o
 .text$I2C_Get_Data_Flag
                0x00000000       0x1c ./system/src/kf32a_basic_i2c.o
 .text$I2C_Get_Ack_Fail_Flag
                0x00000000       0x1c ./system/src/kf32a_basic_i2c.o
 .text$I2C_Clear_Ack_Fail_Flag
                0x00000000       0x1e ./system/src/kf32a_basic_i2c.o
 .text$I2C_Get_Arbitration_Lost_Flag
                0x00000000       0x1c ./system/src/kf32a_basic_i2c.o
 .text$I2C_Clear_Arbitration_Lost_Flag
                0x00000000       0x1e ./system/src/kf32a_basic_i2c.o
 .text$I2C_Get_Write_Read_Flag
                0x00000000       0x1c ./system/src/kf32a_basic_i2c.o
 .text$I2C_Get_SMBus_Alert_Flag
                0x00000000       0x1e ./system/src/kf32a_basic_i2c.o
 .text$I2C_Clear_SMBus_Alert_Flag
                0x00000000       0x20 ./system/src/kf32a_basic_i2c.o
 .text$I2C_Get_SMBus_Host_Header_Flag
                0x00000000       0x1e ./system/src/kf32a_basic_i2c.o
 .text$I2C_Clear_SMBus_Host_Header_Flag
                0x00000000       0x20 ./system/src/kf32a_basic_i2c.o
 .text$I2C_Get_SMBus_Device_Default_Flag
                0x00000000       0x1e ./system/src/kf32a_basic_i2c.o
 .text$I2C_Clear_SMBus_Device_Default_Flag
                0x00000000       0x20 ./system/src/kf32a_basic_i2c.o
 .text$I2C_Get_INTERRUPT_Flag
                0x00000000       0x1e ./system/src/kf32a_basic_i2c.o
 .text$I2C_Clear_INTERRUPT_Flag
                0x00000000       0x20 ./system/src/kf32a_basic_i2c.o
 .text$I2C_Get_Receive_Buff_Flag
                0x00000000       0x1e ./system/src/kf32a_basic_i2c.o
 .text$I2C_Get_Transmit_Buff_Flag
                0x00000000       0x1e ./system/src/kf32a_basic_i2c.o
 .text$I2C_Get_Receive_DMA_Flag
                0x00000000       0x1e ./system/src/kf32a_basic_i2c.o
 .text$I2C_Get_Transmit_DMA_Flag
                0x00000000       0x1e ./system/src/kf32a_basic_i2c.o
 .text          0x00000000        0x0 ./system/src/kf32a_basic_int.o
 .data          0x00000000        0x0 ./system/src/kf32a_basic_int.o
 .bss           0x00000000        0x0 ./system/src/kf32a_basic_int.o
 .text$INT_Get_Interrupt_Action
                0x00000000       0x2c ./system/src/kf32a_basic_int.o
 .text$INT_Get_Priority_Pending_Action
                0x00000000       0x2c ./system/src/kf32a_basic_int.o
 .text$INT_Priority_Base
                0x00000000       0x3c ./system/src/kf32a_basic_int.o
 .text$INT_Get_Priority_Base
                0x00000000       0x2c ./system/src/kf32a_basic_int.o
 .text$INT_Stack_Align_Config
                0x00000000       0x1c ./system/src/kf32a_basic_int.o
 .text$INT_Fault_Masking_Config
                0x00000000       0x1c ./system/src/kf32a_basic_int.o
 .text$INT_Get_Pre_Empty
                0x00000000       0x28 ./system/src/kf32a_basic_int.o
 .text$INT_Get_Pending_Flag
                0x00000000       0x28 ./system/src/kf32a_basic_int.o
 .text$INT_Priority_Group_Config
                0x00000000       0x30 ./system/src/kf32a_basic_int.o
 .text$INT_Get_Priority_Group
                0x00000000       0x20 ./system/src/kf32a_basic_int.o
 .text$INT_Set_Systick_Flag
                0x00000000        0xc ./system/src/kf32a_basic_int.o
 .text$INT_Set_PendSV_Flag
                0x00000000        0xc ./system/src/kf32a_basic_int.o
 .text$INT_Get_Interrupt_Flag
                0x00000000       0x94 ./system/src/kf32a_basic_int.o
 .text$INT_Set_Interrupt_Priority
                0x00000000       0x6c ./system/src/kf32a_basic_int.o
 .text$INT_Stack_Delay_Enable
                0x00000000       0x3c ./system/src/kf32a_basic_int.o
 .text$INT_External_Mask_Enable
                0x00000000       0x40 ./system/src/kf32a_basic_int.o
 .text$INT_External_Rise_Enable
                0x00000000       0x40 ./system/src/kf32a_basic_int.o
 .text$INT_External_Fall_Enable
                0x00000000       0x40 ./system/src/kf32a_basic_int.o
 .text          0x00000000        0x0 ./system/src/kf32a_basic_iwdt.o
 .data          0x00000000        0x0 ./system/src/kf32a_basic_iwdt.o
 .bss           0x00000000        0x0 ./system/src/kf32a_basic_iwdt.o
 .text$SFR_Config
                0x00000000       0x18 ./system/src/kf32a_basic_iwdt.o
 .text$IWDT_Prescaler_Config
                0x00000000       0x30 ./system/src/kf32a_basic_iwdt.o
 .text$IWDT_Overflow_Config
                0x00000000       0x3c ./system/src/kf32a_basic_iwdt.o
 .text$IWDT_Enable
                0x00000000       0x1c ./system/src/kf32a_basic_iwdt.o
 .text$IWDT_Feed_The_Dog
                0x00000000       0x10 ./system/src/kf32a_basic_iwdt.o
 .text          0x00000000        0x0 ./system/src/kf32a_basic_lcd.o
 .data          0x00000000        0x0 ./system/src/kf32a_basic_lcd.o
 .bss           0x00000000        0x0 ./system/src/kf32a_basic_lcd.o
 .text          0x00000000        0x0 ./system/src/kf32a_basic_led.o
 .data          0x00000000        0x0 ./system/src/kf32a_basic_led.o
 .bss           0x00000000        0x0 ./system/src/kf32a_basic_led.o
 .text          0x00000000        0x0 ./system/src/kf32a_basic_op.o
 .data          0x00000000        0x0 ./system/src/kf32a_basic_op.o
 .bss           0x00000000        0x0 ./system/src/kf32a_basic_op.o
 .text$SFR_Config
                0x00000000       0x18 ./system/src/kf32a_basic_op.o
 .text$OP_Reset
                0x00000000       0x2c ./system/src/kf32a_basic_op.o
 .text$OP_CAL_Configure
                0x00000000       0xb0 ./system/src/kf32a_basic_op.o
 .text$OP_GAIN_SELSECT
                0x00000000       0x90 ./system/src/kf32a_basic_op.o
 .text$OP3_POSITIVE_INPUT_SELSECT
                0x00000000       0x30 ./system/src/kf32a_basic_op.o
 .text$OP_OUTPUT_EN
                0x00000000       0xa8 ./system/src/kf32a_basic_op.o
 .text$OP_MODULE_EN
                0x00000000       0xa4 ./system/src/kf32a_basic_op.o
 .text          0x00000000        0x0 ./system/src/kf32a_basic_osc.o
 .data          0x00000000        0x0 ./system/src/kf32a_basic_osc.o
 .bss           0x00000000        0x0 ./system/src/kf32a_basic_osc.o
 .text$OSC_SCLK_Configuration
                0x00000000      0x114 ./system/src/kf32a_basic_osc.o
 .text$OSC_HFCK_Configuration
                0x00000000      0x104 ./system/src/kf32a_basic_osc.o
 .text$OSC_LFCK_Configuration
                0x00000000       0x74 ./system/src/kf32a_basic_osc.o
 .text$OSC_CK48M_Configuration
                0x00000000      0x10c ./system/src/kf32a_basic_osc.o
 .text$OSC_Struct_Init
                0x00000000       0x20 ./system/src/kf32a_basic_osc.o
 .text$OSC_SCLK_Output_Select
                0x00000000       0x3c ./system/src/kf32a_basic_osc.o
 .text$OSC_CK48M_Division_Config
                0x00000000       0x38 ./system/src/kf32a_basic_osc.o
 .text$OSC_CK48M_Source_Config
                0x00000000       0x38 ./system/src/kf32a_basic_osc.o
 .text$OSC_CK48M_Enable
                0x00000000       0x1c ./system/src/kf32a_basic_osc.o
 .text$OSC_EXTLF_Start_Delay_Config
                0x00000000       0x3c ./system/src/kf32a_basic_osc.o
 .text$OSC_Zero_Drift_Config
                0x00000000       0x34 ./system/src/kf32a_basic_osc.o
 .text$OSC_Positive_Drift_Config
                0x00000000       0x3c ./system/src/kf32a_basic_osc.o
 .text$OSC_Negative_Drift_Config
                0x00000000       0x38 ./system/src/kf32a_basic_osc.o
 .text$OSC_Current_Gain_Config
                0x00000000       0x38 ./system/src/kf32a_basic_osc.o
 .text$OSC_External_Input_Enable
                0x00000000       0x1c ./system/src/kf32a_basic_osc.o
 .text$OSC_Feedback_Resistance_Config
                0x00000000       0x1c ./system/src/kf32a_basic_osc.o
 .text$OSC_PLL_Zero_Source_Enable
                0x00000000       0x1c ./system/src/kf32a_basic_osc.o
 .text$OSC_PLL_Vref2_Enable
                0x00000000       0x1c ./system/src/kf32a_basic_osc.o
 .text$OSC_PLL_Vref0p5_Enable
                0x00000000       0x1c ./system/src/kf32a_basic_osc.o
 .text$OSC_PLL_Vref1p2_Enable
                0x00000000       0x1c ./system/src/kf32a_basic_osc.o
 .text$OSC_PLL_Low_Power_20nA_Enable
                0x00000000       0x1c ./system/src/kf32a_basic_osc.o
 .text$OSC_PLL_Vref1p14_Enable
                0x00000000       0x1c ./system/src/kf32a_basic_osc.o
 .text$OSC_PLL_Low_Power_100nA_Enable
                0x00000000       0x1c ./system/src/kf32a_basic_osc.o
 .text$OSC_PLL_LDO_Enable
                0x00000000       0x1c ./system/src/kf32a_basic_osc.o
 .text$OSC_PLL_INT_Enable
                0x00000000       0x1c ./system/src/kf32a_basic_osc.o
 .text$OSC_EXTHF_INT_Enable
                0x00000000       0x1c ./system/src/kf32a_basic_osc.o
 .text$OSC_EXTLF_INT_Enable
                0x00000000       0x1c ./system/src/kf32a_basic_osc.o
 .text$OSC_INTHF_INT_Enable
                0x00000000       0x1c ./system/src/kf32a_basic_osc.o
 .text$OSC_INTLF_INT_Enable
                0x00000000       0x1c ./system/src/kf32a_basic_osc.o
 .text$OSC_Get_Clock_Failure_INT_Flag
                0x00000000       0x18 ./system/src/kf32a_basic_osc.o
 .text$OSC_Get_EXTHF_INT_Flag
                0x00000000       0x18 ./system/src/kf32a_basic_osc.o
 .text$OSC_Get_EXTLF_INT_Flag
                0x00000000       0x18 ./system/src/kf32a_basic_osc.o
 .text$OSC_Get_INTLF_INT_Flag
                0x00000000       0x18 ./system/src/kf32a_basic_osc.o
 .text$OSC_Get_LP4MIF_INT_Flag
                0x00000000       0x18 ./system/src/kf32a_basic_osc.o
 .text          0x00000000        0x0 ./system/src/kf32a_basic_pclk.o
 .data          0x00000000        0x0 ./system/src/kf32a_basic_pclk.o
 .bss           0x00000000        0x0 ./system/src/kf32a_basic_pclk.o
 .text          0x00000000        0x0 ./system/src/kf32a_basic_pm.o
 .data          0x00000000        0x0 ./system/src/kf32a_basic_pm.o
 .bss           0x00000000        0x0 ./system/src/kf32a_basic_pm.o
 .text$SFR_Config
                0x00000000       0x18 ./system/src/kf32a_basic_pm.o
 .text$PM_IO_Latch_Enable
                0x00000000       0x1c ./system/src/kf32a_basic_pm.o
 .text$PM_Get_IO_Latch_Status
                0x00000000       0x18 ./system/src/kf32a_basic_pm.o
 .text$PM_Internal_Low_Frequency_Enable
                0x00000000       0x1c ./system/src/kf32a_basic_pm.o
 .text$PM_External_Low_Frequency_Enable
                0x00000000       0x1c ./system/src/kf32a_basic_pm.o
 .text$PM_External_Low_Frequency_Clock_Enable
                0x00000000       0x1c ./system/src/kf32a_basic_pm.o
 .text$PM_Main_Bandgap_Enable
                0x00000000       0x1c ./system/src/kf32a_basic_pm.o
 .text$PM_LDO18_Enable
                0x00000000       0x1c ./system/src/kf32a_basic_pm.o
 .text$PM_Backup_Registers_Reset_Config
                0x00000000       0x1c ./system/src/kf32a_basic_pm.o
 .text$PM_Independent_Watchdog_Reset_Config
                0x00000000       0x1c ./system/src/kf32a_basic_pm.o
 .text$PM_SRAMA_In_Standby_Work_Mode_Config
                0x00000000       0x1c ./system/src/kf32a_basic_pm.o
 .text$PM_LPRAM_In_Standby_Work_Mode_Config
                0x00000000       0x1c ./system/src/kf32a_basic_pm.o
 .text$PM_Backup_POR_Delay_Time_Config
                0x00000000       0x1c ./system/src/kf32a_basic_pm.o
 .text$PM_Main_POR_Delay_Time_Config
                0x00000000       0x1c ./system/src/kf32a_basic_pm.o
 .text$PM_Peripheral_IO_Port_Config
                0x00000000       0x1c ./system/src/kf32a_basic_pm.o
 .text$PM_OCAL0LOCK_Enable
                0x00000000       0x1c ./system/src/kf32a_basic_pm.o
 .text$PM_MEMSEL_Enable
                0x00000000       0x1c ./system/src/kf32a_basic_pm.o
 .text$PM_Flash_Power_Off_Enable
                0x00000000       0x1c ./system/src/kf32a_basic_pm.o
 .text$PM_CCP0CLKLPEN_Enable
                0x00000000       0x1c ./system/src/kf32a_basic_pm.o
 .text$PM_Backup_Write_And_Read_Enable
                0x00000000       0x1c ./system/src/kf32a_basic_pm.o
 .text$PM_VREF_Software_Enable
                0x00000000       0x1c ./system/src/kf32a_basic_pm.o
 .text$PM_VREF_SELECT
                0x00000000       0x30 ./system/src/kf32a_basic_pm.o
 .text$PM_LPR_Software_Enable
                0x00000000       0x1c ./system/src/kf32a_basic_pm.o
 .text$PM_Low_Power_Mode_Config
                0x00000000       0x30 ./system/src/kf32a_basic_pm.o
 .text$PM_BOR_Enable
                0x00000000       0x1c ./system/src/kf32a_basic_pm.o
 .text$PM_Low_Power_BOR_Enable
                0x00000000       0x1c ./system/src/kf32a_basic_pm.o
 .text$PM_Temperature_Sensor_Enable
                0x00000000       0x1c ./system/src/kf32a_basic_pm.o
 .text$PM_Temperature_Sensor_Buffer_Enable
                0x00000000       0x1c ./system/src/kf32a_basic_pm.o
 .text$PM_Reference_Voltage_Enable
                0x00000000       0x1c ./system/src/kf32a_basic_pm.o
 .text$PM_Internal_Test_Buffer_Clock_Enable
                0x00000000       0x1c ./system/src/kf32a_basic_pm.o
 .text$PM_Internal_Test_Buffer_Clock_Scaler_Config
                0x00000000       0x30 ./system/src/kf32a_basic_pm.o
 .text$PM_PLL0_Output_Buffer_Enable
                0x00000000       0x1c ./system/src/kf32a_basic_pm.o
 .text$PM_PLL1_Output_Buffer_Enable
                0x00000000       0x1c ./system/src/kf32a_basic_pm.o
 .text$PM_PLL2_Output_Buffer_Enable
                0x00000000       0x1c ./system/src/kf32a_basic_pm.o
 .text$PM_PLL0LDO_Output_Buffer_Enable
                0x00000000       0x1c ./system/src/kf32a_basic_pm.o
 .text$PM_PLL1LDO_Output_Buffer_Enable
                0x00000000       0x1c ./system/src/kf32a_basic_pm.o
 .text$PM_PLL2LDO_Output_Buffer_Enable
                0x00000000       0x1c ./system/src/kf32a_basic_pm.o
 .text$PM_Battery_BOR_Config
                0x00000000       0x30 ./system/src/kf32a_basic_pm.o
 .text$PM_Battery_BOR_Enable
                0x00000000       0x1c ./system/src/kf32a_basic_pm.o
 .text$PM_Peripheral_Voltage_Monitoring_Enable
                0x00000000       0x1c ./system/src/kf32a_basic_pm.o
 .text$PM_Voltage_Detection_Config
                0x00000000       0x30 ./system/src/kf32a_basic_pm.o
 .text$PM_Voltage_Detection_Enable
                0x00000000       0x1c ./system/src/kf32a_basic_pm.o
 .text$PM_External_Wakeup_Pin_Enable
                0x00000000       0x40 ./system/src/kf32a_basic_pm.o
 .text$PM_External_Wakeup_Edge_Config
                0x00000000       0x40 ./system/src/kf32a_basic_pm.o
 .text$PM_Stop_Mode_Peripheral_INLF_Enable
                0x00000000       0x3c ./system/src/kf32a_basic_pm.o
 .text$PM_Peripheral_Reset_Config
                0x00000000       0x3c ./system/src/kf32a_basic_pm.o
 .text$PM_Vdd_Por_Enable
                0x00000000       0x1c ./system/src/kf32a_basic_pm.o
 .text$PM_Low_Power_Bandgap_Enable
                0x00000000       0x1c ./system/src/kf32a_basic_pm.o
 .text$PM_Power_Dissipation_Mode_Config
                0x00000000       0x1c ./system/src/kf32a_basic_pm.o
 .text$PM_Power_Dissipation_Mode_Delay_Config
                0x00000000       0x30 ./system/src/kf32a_basic_pm.o
 .text$PM_Internal_Test_Buffer_Enable
                0x00000000       0x1c ./system/src/kf32a_basic_pm.o
 .text$PM_Clear_Reset_And_Wakeup_Flag
                0x00000000       0x38 ./system/src/kf32a_basic_pm.o
 .text$PM_Get_IWDT_Reset_Flag
                0x00000000       0x4c ./system/src/kf32a_basic_pm.o
 .text$PM_Clear_External_Wakeup_Pin_Flag
                0x00000000       0x48 ./system/src/kf32a_basic_pm.o
 .text$PM_Get_Low_Power_Running_State
                0x00000000       0x1c ./system/src/kf32a_basic_pm.o
 .text$PM_Get_LPR_Status
                0x00000000       0x1c ./system/src/kf32a_basic_pm.o
 .text$PM_Get_Peripheral_Voltage_Detection_Status
                0x00000000       0x1c ./system/src/kf32a_basic_pm.o
 .text$PM_Zero_Drift_Current_Config
                0x00000000       0x30 ./system/src/kf32a_basic_pm.o
 .text$PM_BOR_Voltage_Config
                0x00000000       0x30 ./system/src/kf32a_basic_pm.o
 .text$PM_Main_Regulator_Voltage_Config
                0x00000000       0x4c ./system/src/kf32a_basic_pm.o
 .text$PM_Main_Regulator_HV_Enable
                0x00000000       0x1c ./system/src/kf32a_basic_pm.o
 .text$PM_Reference_Calibration_Config
                0x00000000       0x74 ./system/src/kf32a_basic_pm.o
 .text$PM_INTLF_Bias_Current_Config
                0x00000000       0x30 ./system/src/kf32a_basic_pm.o
 .text$PM_EXTLF_Bias_Current_Config
                0x00000000       0x30 ./system/src/kf32a_basic_pm.o
 .text$PM_INTLF_Capacitance_Calibration_Config
                0x00000000       0x38 ./system/src/kf32a_basic_pm.o
 .text$PM_LP_Bias_Calibration_Config
                0x00000000       0x3c ./system/src/kf32a_basic_pm.o
 .text$PM_LPBG_Pump_Calibration_Config
                0x00000000       0x3c ./system/src/kf32a_basic_pm.o
 .text$PM_EXTLF_N_Bias_Current_Config
                0x00000000       0x30 ./system/src/kf32a_basic_pm.o
 .text$PM_LDO18_Module_Config
                0x00000000       0x1c ./system/src/kf32a_basic_pm.o
 .text$PM_Main_Regulator_Bandgap_Config
                0x00000000       0x1c ./system/src/kf32a_basic_pm.o
 .text$PM_LPR_Module_Config
                0x00000000       0x1c ./system/src/kf32a_basic_pm.o
 .text          0x00000000        0x0 ./system/src/kf32a_basic_qei.o
 .data          0x00000000        0x0 ./system/src/kf32a_basic_qei.o
 .bss           0x00000000        0x0 ./system/src/kf32a_basic_qei.o
 .text$SFR_Config
                0x00000000       0x18 ./system/src/kf32a_basic_qei.o
 .text$QEI_Reset
                0x00000000       0x64 ./system/src/kf32a_basic_qei.o
 .text$QEI_Configuration
                0x00000000       0x8c ./system/src/kf32a_basic_qei.o
 .text$QEI_Timer_Configuration
                0x00000000       0x58 ./system/src/kf32a_basic_qei.o
 .text$QEI_Struct_Init
                0x00000000       0x3e ./system/src/kf32a_basic_qei.o
 .text$QEI_Timer_Struct_Init
                0x00000000       0x26 ./system/src/kf32a_basic_qei.o
 .text$QEI_Encoder_Mode_Config
                0x00000000       0x34 ./system/src/kf32a_basic_qei.o
 .text$QEI_Location_Counter_Reset_Enable
                0x00000000       0x1a ./system/src/kf32a_basic_qei.o
 .text$QEI_Timer_Source_Clock_Config
                0x00000000       0x1a ./system/src/kf32a_basic_qei.o
 .text$QEI_Get_Index_Pin_State
                0x00000000       0x1c ./system/src/kf32a_basic_qei.o
 .text$QEI_Location_Counter_Output_Enable
                0x00000000       0x1a ./system/src/kf32a_basic_qei.o
 .text$QEI_Location_Counter_Direction_Config
                0x00000000       0x1a ./system/src/kf32a_basic_qei.o
 .text$QEI_Get_Location_Counter_Direction
                0x00000000       0x1c ./system/src/kf32a_basic_qei.o
 .text$QEI_Source_Clock_Config
                0x00000000       0x28 ./system/src/kf32a_basic_qei.o
 .text$QEI_Digital_Filter_Output_Enable
                0x00000000       0x1e ./system/src/kf32a_basic_qei.o
 .text$QEI_Digital_Filter_Clock_Config
                0x00000000       0x28 ./system/src/kf32a_basic_qei.o
 .text$QEI_Swap_Phase_AB_Enable
                0x00000000       0x1e ./system/src/kf32a_basic_qei.o
 .text$QEI_Timer_Counter_Config
                0x00000000       0x34 ./system/src/kf32a_basic_qei.o
 .text$QEI_Get_Timer_Counter
                0x00000000       0x18 ./system/src/kf32a_basic_qei.o
 .text$QEI_Timer_Period_Config
                0x00000000       0x34 ./system/src/kf32a_basic_qei.o
 .text$QEI_Get_Timer_Period
                0x00000000       0x18 ./system/src/kf32a_basic_qei.o
 .text$QEI_Timer_Prescaler_Config
                0x00000000       0x34 ./system/src/kf32a_basic_qei.o
 .text$QEI_Get_INT_Flag
                0x00000000       0x28 ./system/src/kf32a_basic_qei.o
 .text$QEI_Clear_INT_Flag
                0x00000000       0x46 ./system/src/kf32a_basic_qei.o
 .text$QEI_Set_INT_Enable
                0x00000000       0x36 ./system/src/kf32a_basic_qei.o
 .text$QEI_Get_Counter_Overflow_INT_Flag
                0x00000000       0x1e ./system/src/kf32a_basic_qei.o
 .text$QEI_Get_Phase_Error_INT_Flag
                0x00000000       0x1e ./system/src/kf32a_basic_qei.o
 .text$QEI_Get_Count_Error_INT_Flag
                0x00000000       0x1e ./system/src/kf32a_basic_qei.o
 .text$QEI_Clear_Timer_Overflow_INT_Flag
                0x00000000       0x24 ./system/src/kf32a_basic_qei.o
 .text$QEI_Clear_Phase_Error_INT_Flag
                0x00000000       0x24 ./system/src/kf32a_basic_qei.o
 .text$QEI_Clear_Counter_Error_INT_Flag
                0x00000000       0x24 ./system/src/kf32a_basic_qei.o
 .text$QEI_Timer_Overflow_INT_Enable
                0x00000000       0x1e ./system/src/kf32a_basic_qei.o
 .text$QEI_Phase_Error_INT_Enable
                0x00000000       0x1e ./system/src/kf32a_basic_qei.o
 .text$QEI_Counter_Error_INT_Enable
                0x00000000       0x1e ./system/src/kf32a_basic_qei.o
 .text          0x00000000        0x0 ./system/src/kf32a_basic_rst.o
 .data          0x00000000        0x0 ./system/src/kf32a_basic_rst.o
 .bss           0x00000000        0x0 ./system/src/kf32a_basic_rst.o
 .text$RST_CTL0_Peripheral_Reset_Enable
                0x00000000       0x30 ./system/src/kf32a_basic_rst.o
 .text          0x00000000        0x0 ./system/src/kf32a_basic_rtc.o
 .data          0x00000000        0x0 ./system/src/kf32a_basic_rtc.o
 .bss           0x00000000        0x0 ./system/src/kf32a_basic_rtc.o
 .text$SFR_Config
                0x00000000       0x18 ./system/src/kf32a_basic_rtc.o
 .text$RTC_Reset
                0x00000000       0x20 ./system/src/kf32a_basic_rtc.o
 .text$RTC_Configuration
                0x00000000      0x1a4 ./system/src/kf32a_basic_rtc.o
 .text$RTC_Time_Struct_Init
                0x00000000       0x20 ./system/src/kf32a_basic_rtc.o
 .text$RTC_Date_Struct_Init
                0x00000000       0x20 ./system/src/kf32a_basic_rtc.o
 .text$RTC_Struct_Init
                0x00000000       0x44 ./system/src/kf32a_basic_rtc.o
 .text$RTC_Get_Time_Configuration
                0x00000000       0x98 ./system/src/kf32a_basic_rtc.o
 .text$RTC_Get_Date_Configuration
                0x00000000       0xa0 ./system/src/kf32a_basic_rtc.o
 .text$RTC_Alarm_Configuration
                0x00000000      0x134 ./system/src/kf32a_basic_rtc.o
 .text$RTC_Alarm_Struct_Init
                0x00000000       0x3e ./system/src/kf32a_basic_rtc.o
 .text$RTC_Clock_Calibration_Config
                0x00000000       0x40 ./system/src/kf32a_basic_rtc.o
 .text$RTC_Time_Tick_Output_Enable
                0x00000000       0x1c ./system/src/kf32a_basic_rtc.o
 .text$RTC_Time_Stamp_Channel_Enable
                0x00000000       0x30 ./system/src/kf32a_basic_rtc.o
 .text$RTC_Time_Stamp_Edge_Config
                0x00000000       0x1c ./system/src/kf32a_basic_rtc.o
 .text$RTC_Time_Stamp_Edge_Enable
                0x00000000       0x1c ./system/src/kf32a_basic_rtc.o
 .text$RTC_Add_One_Hour_Enable
                0x00000000       0x1c ./system/src/kf32a_basic_rtc.o
 .text$RTC_Sub_One_Hour_Enable
                0x00000000       0x1c ./system/src/kf32a_basic_rtc.o
 .text$RTC_Time_Tick_Config
                0x00000000       0x30 ./system/src/kf32a_basic_rtc.o
 .text$RTC_Reset_Config
                0x00000000       0x10 ./system/src/kf32a_basic_rtc.o
 .text$RTC_Get_Leap_Year_Flag
                0x00000000       0x1c ./system/src/kf32a_basic_rtc.o
 .text$RTC_Hour_Format_Config
                0x00000000       0x1c ./system/src/kf32a_basic_rtc.o
 .text$RTC_Config_Mode_Enable
                0x00000000       0x1c ./system/src/kf32a_basic_rtc.o
 .text$RTC_Get_Operation_Off_Flag
                0x00000000       0x1c ./system/src/kf32a_basic_rtc.o
 .text$RTC_Get_Action_State_Flag
                0x00000000       0x1c ./system/src/kf32a_basic_rtc.o
 .text$RTC_Enable
                0x00000000       0x1c ./system/src/kf32a_basic_rtc.o
 .text$RTC_Alarm_A_Enable
                0x00000000       0x1c ./system/src/kf32a_basic_rtc.o
 .text$RTC_Alarm_A_Weekday_Enable
                0x00000000       0x1c ./system/src/kf32a_basic_rtc.o
 .text$RTC_Alarm_A_Weekday_Config
                0x00000000       0x3c ./system/src/kf32a_basic_rtc.o
 .text$RTC_Alarm_A_Hours_Enable
                0x00000000       0x1c ./system/src/kf32a_basic_rtc.o
 .text$RTC_Alarm_A_AMPM_Config
                0x00000000       0x1c ./system/src/kf32a_basic_rtc.o
 .text$RTC_Alarm_A_Hours_Config
                0x00000000       0x4c ./system/src/kf32a_basic_rtc.o
 .text$RTC_Alarm_A_Minutes_Enable
                0x00000000       0x1c ./system/src/kf32a_basic_rtc.o
 .text$RTC_Alarm_A_Minutes_Config
                0x00000000       0x4c ./system/src/kf32a_basic_rtc.o
 .text$RTC_Alarm_A_Seconds_Enable
                0x00000000       0x1c ./system/src/kf32a_basic_rtc.o
 .text$RTC_Alarm_A_Seconds_Config
                0x00000000       0x44 ./system/src/kf32a_basic_rtc.o
 .text$RTC_Alarm_B_Enable
                0x00000000       0x1c ./system/src/kf32a_basic_rtc.o
 .text$RTC_Alarm_B_Weekday_Enable
                0x00000000       0x1c ./system/src/kf32a_basic_rtc.o
 .text$RTC_Alarm_B_Weekday_Config
                0x00000000       0x3c ./system/src/kf32a_basic_rtc.o
 .text$RTC_Alarm_B_Hours_Enable
                0x00000000       0x1c ./system/src/kf32a_basic_rtc.o
 .text$RTC_Alarm_B_AMPM_Config
                0x00000000       0x1c ./system/src/kf32a_basic_rtc.o
 .text$RTC_Alarm_B_Hours_Config
                0x00000000       0x4c ./system/src/kf32a_basic_rtc.o
 .text$RTC_Alarm_B_Minutes_Enable
                0x00000000       0x1c ./system/src/kf32a_basic_rtc.o
 .text$RTC_Alarm_B_Minutes_Config
                0x00000000       0x4c ./system/src/kf32a_basic_rtc.o
 .text$RTC_Alarm_B_Seconds_Enable
                0x00000000       0x1c ./system/src/kf32a_basic_rtc.o
 .text$RTC_Alarm_B_Seconds_Config
                0x00000000       0x44 ./system/src/kf32a_basic_rtc.o
 .text$RTC_Weekday_Config
                0x00000000       0x3c ./system/src/kf32a_basic_rtc.o
 .text$RTC_AMPM_Config
                0x00000000       0x1c ./system/src/kf32a_basic_rtc.o
 .text$RTC_Hours_Config
                0x00000000       0x4c ./system/src/kf32a_basic_rtc.o
 .text$RTC_Minutes_Config
                0x00000000       0x4c ./system/src/kf32a_basic_rtc.o
 .text$RTC_Seconds_Config
                0x00000000       0x44 ./system/src/kf32a_basic_rtc.o
 .text$RTC_Year_Config
                0x00000000       0x4c ./system/src/kf32a_basic_rtc.o
 .text$RTC_Month_Config
                0x00000000       0x3c ./system/src/kf32a_basic_rtc.o
 .text$RTC_Day_Config
                0x00000000       0x44 ./system/src/kf32a_basic_rtc.o
 .text$RTC_Weekday_Backup_Config
                0x00000000       0x3c ./system/src/kf32a_basic_rtc.o
 .text$RTC_AMPM_Backup_Config
                0x00000000       0x1c ./system/src/kf32a_basic_rtc.o
 .text$RTC_Hours_Backup_Config
                0x00000000       0x4c ./system/src/kf32a_basic_rtc.o
 .text$RTC_Minutes_Backup_Config
                0x00000000       0x4c ./system/src/kf32a_basic_rtc.o
 .text$RTC_Seconds_Backup_Config
                0x00000000       0x44 ./system/src/kf32a_basic_rtc.o
 .text$RTC_Year_Backup_Config
                0x00000000       0x4c ./system/src/kf32a_basic_rtc.o
 .text$RTC_Month_Backup_Config
                0x00000000       0x3c ./system/src/kf32a_basic_rtc.o
 .text$RTC_Day_Backup_Config
                0x00000000       0x44 ./system/src/kf32a_basic_rtc.o
 .text$RTC_Timer1_Config
                0x00000000       0x3c ./system/src/kf32a_basic_rtc.o
 .text$RTC_Timer0_Config
                0x00000000       0x3c ./system/src/kf32a_basic_rtc.o
 .text$RTC_Timer1_Enable
                0x00000000       0x1c ./system/src/kf32a_basic_rtc.o
 .text$RTC_Timer0_Enable
                0x00000000       0x1c ./system/src/kf32a_basic_rtc.o
 .text$RTC_Timer1_Source_Config
                0x00000000       0x3c ./system/src/kf32a_basic_rtc.o
 .text$RTC_Timer0_Source_Config
                0x00000000       0x38 ./system/src/kf32a_basic_rtc.o
 .text$RTC_Time_Stamp_INT_Enable
                0x00000000       0x1c ./system/src/kf32a_basic_rtc.o
 .text$RTC_Time_Stamp_Overflow_INT_Enable
                0x00000000       0x1c ./system/src/kf32a_basic_rtc.o
 .text$RTC_Timer1_INT_Enable
                0x00000000       0x1c ./system/src/kf32a_basic_rtc.o
 .text$RTC_Timer0_INT_Enable
                0x00000000       0x1c ./system/src/kf32a_basic_rtc.o
 .text$RTC_Time_Tick_INT_Enable
                0x00000000       0x1c ./system/src/kf32a_basic_rtc.o
 .text$RTC_Alarm_B_INT_Enable
                0x00000000       0x1c ./system/src/kf32a_basic_rtc.o
 .text$RTC_Alarm_A_INT_Enable
                0x00000000       0x1c ./system/src/kf32a_basic_rtc.o
 .text$RTC_Days_INT_Enable
                0x00000000       0x1c ./system/src/kf32a_basic_rtc.o
 .text$RTC_Hours_INT_Enable
                0x00000000       0x1c ./system/src/kf32a_basic_rtc.o
 .text$RTC_Minutes_INT_Enable
                0x00000000       0x1c ./system/src/kf32a_basic_rtc.o
 .text$RTC_Seconds_INT_Enable
                0x00000000       0x1c ./system/src/kf32a_basic_rtc.o
 .text$RTC_Get_Time_Stamp_INT_Flag
                0x00000000       0x1c ./system/src/kf32a_basic_rtc.o
 .text$RTC_Get_Time_Stamp_Overflow_INT_Flag
                0x00000000       0x1c ./system/src/kf32a_basic_rtc.o
 .text$RTC_Get_Timer1_INT_Flag
                0x00000000       0x1c ./system/src/kf32a_basic_rtc.o
 .text$RTC_Get_Timer0_INT_Flag
                0x00000000       0x1c ./system/src/kf32a_basic_rtc.o
 .text$RTC_Get_Time_Tick_INT_Flag
                0x00000000       0x1c ./system/src/kf32a_basic_rtc.o
 .text$RTC_Get_Alarm_B_INT_Flag
                0x00000000       0x1c ./system/src/kf32a_basic_rtc.o
 .text$RTC_Get_Alarm_A_INT_Flag
                0x00000000       0x1c ./system/src/kf32a_basic_rtc.o
 .text$RTC_Get_Days_INT_Flag
                0x00000000       0x1c ./system/src/kf32a_basic_rtc.o
 .text$RTC_Get_Hours_INT_Flag
                0x00000000       0x1c ./system/src/kf32a_basic_rtc.o
 .text$RTC_Get_Minutes_INT_Flag
                0x00000000       0x1c ./system/src/kf32a_basic_rtc.o
 .text$RTC_Get_Seconds_INT_Flag
                0x00000000       0x1c ./system/src/kf32a_basic_rtc.o
 .text$RTC_Clear_Time_Stamp_INT_Flag
                0x00000000       0x24 ./system/src/kf32a_basic_rtc.o
 .text$RTC_Clear_Time_Stamp_Overflow_INT_Flag
                0x00000000       0x24 ./system/src/kf32a_basic_rtc.o
 .text$RTC_Clear_Timer1_INT_Flag
                0x00000000       0x24 ./system/src/kf32a_basic_rtc.o
 .text$RTC_Clear_Timer0_INT_Flag
                0x00000000       0x24 ./system/src/kf32a_basic_rtc.o
 .text$RTC_Clear_Time_Tick_INT_Flag
                0x00000000       0x20 ./system/src/kf32a_basic_rtc.o
 .text$RTC_Clear_Alarm_B_INT_Flag
                0x00000000       0x20 ./system/src/kf32a_basic_rtc.o
 .text$RTC_Clear_Alarm_A_INT_Flag
                0x00000000       0x20 ./system/src/kf32a_basic_rtc.o
 .text$RTC_Clear_Days_INT_Flag
                0x00000000       0x20 ./system/src/kf32a_basic_rtc.o
 .text$RTC_Clear_Hours_INT_Flag
                0x00000000       0x20 ./system/src/kf32a_basic_rtc.o
 .text$RTC_Clear_Minutes_INT_Flag
                0x00000000       0x20 ./system/src/kf32a_basic_rtc.o
 .text$RTC_Clear_Seconds_INT_Flag
                0x00000000       0x20 ./system/src/kf32a_basic_rtc.o
 .text$RTC_Byte_To_Bcd
                0x00000000       0x40 ./system/src/kf32a_basic_rtc.o
 .text$RTC_Bcd_To_Byte
                0x00000000       0x2c ./system/src/kf32a_basic_rtc.o
 .text          0x00000000        0x0 ./system/src/kf32a_basic_spi.o
 .data          0x00000000        0x0 ./system/src/kf32a_basic_spi.o
 .bss           0x00000000        0x0 ./system/src/kf32a_basic_spi.o
 .text$SFR_Config
                0x00000000       0x18 ./system/src/kf32a_basic_spi.o
 .text$SPI_Reset
                0x00000000       0xb8 ./system/src/kf32a_basic_spi.o
 .text$SPI_Configuration
                0x00000000       0x70 ./system/src/kf32a_basic_spi.o
 .text$I2S_Configuration
                0x00000000       0x6c ./system/src/kf32a_basic_spi.o
 .text$SPI_Struct_Init
                0x00000000       0x32 ./system/src/kf32a_basic_spi.o
 .text$I2S_Struct_Init
                0x00000000       0x2e ./system/src/kf32a_basic_spi.o
 .text$SPI_Cmd  0x00000000       0x1e ./system/src/kf32a_basic_spi.o
 .text$I2S_Mode_Select
                0x00000000       0x1e ./system/src/kf32a_basic_spi.o
 .text$SPI_I2S_ReceiveData
                0x00000000       0x16 ./system/src/kf32a_basic_spi.o
 .text$SPI_I2S_SendData32
                0x00000000       0x10 ./system/src/kf32a_basic_spi.o
 .text$SPI_I2S_SendData8
                0x00000000       0x12 ./system/src/kf32a_basic_spi.o
 .text$SPI_BaudRate_Config
                0x00000000       0x34 ./system/src/kf32a_basic_spi.o
 .text$I2S_DIV_Config
                0x00000000       0x38 ./system/src/kf32a_basic_spi.o
 .text$SPI_MODE_Config
                0x00000000       0x28 ./system/src/kf32a_basic_spi.o
 .text$SPI_CLK_Config
                0x00000000       0x28 ./system/src/kf32a_basic_spi.o
 .text$SPI_Data_Direction_Config
                0x00000000       0x1e ./system/src/kf32a_basic_spi.o
 .text$SPI_Clock_Polarity_Config
                0x00000000       0x1e ./system/src/kf32a_basic_spi.o
 .text$SPI_Clock_Edge_Config
                0x00000000       0x1e ./system/src/kf32a_basic_spi.o
 .text$SPI_BIT_SELECT_Config
                0x00000000       0x2c ./system/src/kf32a_basic_spi.o
 .text$SPI_I2S_MODE_Config
                0x00000000       0x2c ./system/src/kf32a_basic_spi.o
 .text$SPI_I2S_STANDARD_Config
                0x00000000       0x2c ./system/src/kf32a_basic_spi.o
 .text$SPI_PCM_Config
                0x00000000       0x1e ./system/src/kf32a_basic_spi.o
 .text$SPI_CHLEN_Config
                0x00000000       0x48 ./system/src/kf32a_basic_spi.o
 .text$SPI_PCM_CLOCK_Polarity_Config
                0x00000000       0x1e ./system/src/kf32a_basic_spi.o
 .text$SPI_MAIN_CLOCK_OUT_Enable
                0x00000000       0x1a ./system/src/kf32a_basic_spi.o
 .text$SPI_Receive_Overflow_INT_Enable
                0x00000000       0x1e ./system/src/kf32a_basic_spi.o
 .text$SPI_Transmit_Overflow_INT_Enable
                0x00000000       0x1e ./system/src/kf32a_basic_spi.o
 .text$SPI_RNEIE_INT_Enable
                0x00000000       0x1e ./system/src/kf32a_basic_spi.o
 .text$SPI_TNEIE_INT_Enable
                0x00000000       0x1e ./system/src/kf32a_basic_spi.o
 .text$SPI_Receive_DMA_INT_Enable
                0x00000000       0x1e ./system/src/kf32a_basic_spi.o
 .text$SPI_Transmit_DMA_INT_Enable
                0x00000000       0x1e ./system/src/kf32a_basic_spi.o
 .text$SPI_Transmit_CHSIDE_INT_Enable
                0x00000000       0x1e ./system/src/kf32a_basic_spi.o
 .text$SPI_Get_BUSY_Flag
                0x00000000       0x1c ./system/src/kf32a_basic_spi.o
 .text$SPI_Get_Receive_Overflow_Flag
                0x00000000       0x1c ./system/src/kf32a_basic_spi.o
 .text$SPI_Get_Transmit_Overflow_Flag
                0x00000000       0x1c ./system/src/kf32a_basic_spi.o
 .text$SPI_Get_Receive_Buf_Flag
                0x00000000       0x1c ./system/src/kf32a_basic_spi.o
 .text$SPI_Get_Transmit_Buf_Flag
                0x00000000       0x1c ./system/src/kf32a_basic_spi.o
 .text$SPI_Clear_Receive_Overflow_INT_Flag
                0x00000000       0x22 ./system/src/kf32a_basic_spi.o
 .text$SPI_Clear_Transmit_Overflow_INT_Flag
                0x00000000       0x22 ./system/src/kf32a_basic_spi.o
 .text          0x00000000        0x0 ./system/src/kf32a_basic_sysctl.o
 .data          0x00000000        0x0 ./system/src/kf32a_basic_sysctl.o
 .bss           0x00000000        0x0 ./system/src/kf32a_basic_sysctl.o
 .text$SYSCTL_Get_V_Flag
                0x00000000       0x1c ./system/src/kf32a_basic_sysctl.o
 .text$SYSCTL_Get_C_Flag
                0x00000000       0x1c ./system/src/kf32a_basic_sysctl.o
 .text$SYSCTL_Get_Z_Flag
                0x00000000       0x1c ./system/src/kf32a_basic_sysctl.o
 .text$SYSCTL_Get_N_Flag
                0x00000000       0x18 ./system/src/kf32a_basic_sysctl.o
 .text$SYSCTL_Set_V_Flag
                0x00000000       0x1c ./system/src/kf32a_basic_sysctl.o
 .text$SYSCTL_Set_C_Flag
                0x00000000       0x1c ./system/src/kf32a_basic_sysctl.o
 .text$SYSCTL_Set_Z_Flag
                0x00000000       0x1c ./system/src/kf32a_basic_sysctl.o
 .text$SYSCTL_Set_N_Flag
                0x00000000       0x1c ./system/src/kf32a_basic_sysctl.o
 .text$SYSCTL_Sleep_On_Exit_Enable
                0x00000000       0x1c ./system/src/kf32a_basic_sysctl.o
 .text$SYSCTL_Deep_Sleep_Enable
                0x00000000       0x1c ./system/src/kf32a_basic_sysctl.o
 .text$SYSCTL_Interrupt_Awake_Enable
                0x00000000       0x1c ./system/src/kf32a_basic_sysctl.o
 .text$SYSCTL_Stack_Align_State
                0x00000000       0x1c ./system/src/kf32a_basic_sysctl.o
 .text$SYSCTL_Super_User_Config
                0x00000000       0x1c ./system/src/kf32a_basic_sysctl.o
 .text$SYSCTL_Stack_Pointer_State
                0x00000000       0x1c ./system/src/kf32a_basic_sysctl.o
 .text$SYSCTL_Stack_Pointer_Config
                0x00000000       0x30 ./system/src/kf32a_basic_sysctl.o
 .text$SYSCTL_Exception_Reset_Enable
                0x00000000       0x44 ./system/src/kf32a_basic_sysctl.o
 .text$SYSCTL_Ram_Space_Config
                0x00000000       0x38 ./system/src/kf32a_basic_sysctl.o
 .text$SYSCTL_Flash_Start_Remap_Config
                0x00000000       0x30 ./system/src/kf32a_basic_sysctl.o
 .text          0x00000000        0x0 ./system/src/kf32a_basic_systick.o
 .data          0x00000000        0x0 ./system/src/kf32a_basic_systick.o
 .bss           0x00000000        0x0 ./system/src/kf32a_basic_systick.o
 .text$SFR_Config
                0x00000000       0x18 ./system/src/kf32a_basic_systick.o
 .text$SYSTICK_Configuration
                0x00000000       0x50 ./system/src/kf32a_basic_systick.o
 .text$SYSTICK_Cmd
                0x00000000       0x1c ./system/src/kf32a_basic_systick.o
 .text$SYSTICK_Clock_Config
                0x00000000       0x1c ./system/src/kf32a_basic_systick.o
 .text$SYSTICK_Systick_INT_Enable
                0x00000000       0x1c ./system/src/kf32a_basic_systick.o
 .text$SYSTICK_Get_Count_Zero_Flag
                0x00000000       0x1c ./system/src/kf32a_basic_systick.o
 .text$SYSTICK_Reload_Config
                0x00000000       0x14 ./system/src/kf32a_basic_systick.o
 .text$SYSTICK_Counter_Updata
                0x00000000        0xc ./system/src/kf32a_basic_systick.o
 .text$SYSTICK_Get_Reload
                0x00000000       0x20 ./system/src/kf32a_basic_systick.o
 .text$SYSTICK_Get_Counter
                0x00000000       0x20 ./system/src/kf32a_basic_systick.o
 .text          0x00000000        0x0 ./system/src/kf32a_basic_usart.o
 .data          0x00000000        0x0 ./system/src/kf32a_basic_usart.o
 .bss           0x00000000        0x0 ./system/src/kf32a_basic_usart.o
 .text$USART_U7816R_Configuration
                0x00000000       0x60 ./system/src/kf32a_basic_usart.o
 .text$USART_U7816R_Struct_Init
                0x00000000       0x32 ./system/src/kf32a_basic_usart.o
 .text$USART_BaudRate_Clock_Config
                0x00000000       0x28 ./system/src/kf32a_basic_usart.o
 .text$USART_HalfDuplex_ClockPolarity_Config
                0x00000000       0x1a ./system/src/kf32a_basic_usart.o
 .text$USART_Transmit_Order_Config
                0x00000000       0x1a ./system/src/kf32a_basic_usart.o
 .text$USART_Receive_Order_Config
                0x00000000       0x1a ./system/src/kf32a_basic_usart.o
 .text$USART_Infrare_Detector_Voltage_Config
                0x00000000       0x1a ./system/src/kf32a_basic_usart.o
 .text$USART_WeakUP_Enable
                0x00000000       0x1a ./system/src/kf32a_basic_usart.o
 .text$USART_Clock_Source_Config
                0x00000000       0x1a ./system/src/kf32a_basic_usart.o
 .text$USART_Address_Detection_Enable
                0x00000000       0x1a ./system/src/kf32a_basic_usart.o
 .text$USART_Auto_BaudRate_Detection_Enable
                0x00000000       0x1a ./system/src/kf32a_basic_usart.o
 .text$USART_Get_Auto_BaudRate_Detection_Flag
                0x00000000       0x1e ./system/src/kf32a_basic_usart.o
 .text$USART_Send_Blank_Enable
                0x00000000       0x1a ./system/src/kf32a_basic_usart.o
 .text$USART_SYN_Choice_Config
                0x00000000       0x1a ./system/src/kf32a_basic_usart.o
 .text$USART_Transmit_Data_Enable
                0x00000000       0x1a ./system/src/kf32a_basic_usart.o
 .text$USART_Receive_Data_Enable
                0x00000000       0x1a ./system/src/kf32a_basic_usart.o
 .text$USART_STOP_Word_Config
                0x00000000       0x1a ./system/src/kf32a_basic_usart.o
 .text$USART_Transmit_9Word_Select_Config
                0x00000000       0x1a ./system/src/kf32a_basic_usart.o
 .text$USART_Parity_Select_Config
                0x00000000       0x1a ./system/src/kf32a_basic_usart.o
 .text$USART_9Data_Enable
                0x00000000       0x1a ./system/src/kf32a_basic_usart.o
 .text$USART_CTS_Enable
                0x00000000       0x1a ./system/src/kf32a_basic_usart.o
 .text$USART_RTS_Enable
                0x00000000       0x1a ./system/src/kf32a_basic_usart.o
 .text$USART_Infrare_Detector_Enable
                0x00000000       0x1a ./system/src/kf32a_basic_usart.o
 .text$USART_Singlet_Line_Mode_Enable
                0x00000000       0x1a ./system/src/kf32a_basic_usart.o
 .text$USART_BaudRate_Integer_Config
                0x00000000       0x34 ./system/src/kf32a_basic_usart.o
 .text$USART_BaudRate_Decimal1_Config
                0x00000000       0x34 ./system/src/kf32a_basic_usart.o
 .text$USART_BaudRate_Decimal2_Config
                0x00000000       0x34 ./system/src/kf32a_basic_usart.o
 .text$USART_TransmitData
                0x00000000       0x22 ./system/src/kf32a_basic_usart.o
 .text$USART_Address_Match_Config
                0x00000000       0x34 ./system/src/kf32a_basic_usart.o
 .text$USART_Send_Idle_Frame_Enable
                0x00000000       0x34 ./system/src/kf32a_basic_usart.o
 .text$USART_Receive_Idle_Frame_Config
                0x00000000       0x34 ./system/src/kf32a_basic_usart.o
 .text$USART_7816_Cmd
                0x00000000       0x1e ./system/src/kf32a_basic_usart.o
 .text$USART_7816_CLKOUT_Enable
                0x00000000       0x1e ./system/src/kf32a_basic_usart.o
 .text$USART_7816_Error_Signal_Config
                0x00000000       0x28 ./system/src/kf32a_basic_usart.o
 .text$USART_BGT_Config
                0x00000000       0x1e ./system/src/kf32a_basic_usart.o
 .text$USART_Transmit_Repeat_Enable
                0x00000000       0x1e ./system/src/kf32a_basic_usart.o
 .text$USART_Receive_Repeat_Enable
                0x00000000       0x1e ./system/src/kf32a_basic_usart.o
 .text$USART_Transmit_Repeat_Times_Config
                0x00000000       0x2c ./system/src/kf32a_basic_usart.o
 .text$USART_Receive_Repeat_Times_Config
                0x00000000       0x2c ./system/src/kf32a_basic_usart.o
 .text$USART_7816_CLKDIV_Config
                0x00000000       0x38 ./system/src/kf32a_basic_usart.o
 .text$USART_7816_EGT_Config
                0x00000000       0x38 ./system/src/kf32a_basic_usart.o
 .text$USART_7816_Resend_Mode_Select
                0x00000000       0x34 ./system/src/kf32a_basic_usart.o
 .text$USART_Receive_Overflow_INT_Enable
                0x00000000       0x1e ./system/src/kf32a_basic_usart.o
 .text$USART_Parity_ERROR_INT_Enable
                0x00000000       0x1e ./system/src/kf32a_basic_usart.o
 .text$USART_Frame_ERROE_INT_Enable
                0x00000000       0x1e ./system/src/kf32a_basic_usart.o
 .text$USART_Blank_INT_Enable
                0x00000000       0x1e ./system/src/kf32a_basic_usart.o
 .text$USART_Auto_BaudRate_TimeOver_INT_Enable
                0x00000000       0x1e ./system/src/kf32a_basic_usart.o
 .text$USART_WeakUP_INT_Enable
                0x00000000       0x1e ./system/src/kf32a_basic_usart.o
 .text$USART_Transmit_ERROR_INT_Enable
                0x00000000       0x1e ./system/src/kf32a_basic_usart.o
 .text$USART_Receive_ERROR_INT_Enable
                0x00000000       0x1e ./system/src/kf32a_basic_usart.o
 .text$USART_CTS_INT_Enable
                0x00000000       0x1e ./system/src/kf32a_basic_usart.o
 .text$USART_TFE_INT_Enable
                0x00000000       0x1e ./system/src/kf32a_basic_usart.o
 .text$USART_TXE_INT_Enable
                0x00000000       0x1e ./system/src/kf32a_basic_usart.o
 .text$USART_Receive_DMA_INT_Enable
                0x00000000       0x1e ./system/src/kf32a_basic_usart.o
 .text$USART_Transmit_DMA_INT_Enable
                0x00000000       0x1e ./system/src/kf32a_basic_usart.o
 .text$USART_IDLE_INT_Enable
                0x00000000       0x1e ./system/src/kf32a_basic_usart.o
 .text$USART_UADM_INT_Enable
                0x00000000       0x1e ./system/src/kf32a_basic_usart.o
 .text$USART_Get_Receive_Overflow_Flag
                0x00000000       0x1c ./system/src/kf32a_basic_usart.o
 .text$USART_Get_Parity_ERROR_Flag
                0x00000000       0x1c ./system/src/kf32a_basic_usart.o
 .text$USART_Get_Frame_ERROR_Flag
                0x00000000       0x1c ./system/src/kf32a_basic_usart.o
 .text$USART_Get_Blank_Flag
                0x00000000       0x1c ./system/src/kf32a_basic_usart.o
 .text$USART_Get_Auto_Baudrate_TimeOver_Flag
                0x00000000       0x1c ./system/src/kf32a_basic_usart.o
 .text$USART_Get_WeakUP_Flag
                0x00000000       0x1c ./system/src/kf32a_basic_usart.o
 .text$USART_Get_7816Transmit_ERROR_Flag
                0x00000000       0x1c ./system/src/kf32a_basic_usart.o
 .text$USART_Get_7816Receive_ERROR_Flag
                0x00000000       0x1c ./system/src/kf32a_basic_usart.o
 .text$USART_Get_CTS_Flag
                0x00000000       0x1e ./system/src/kf32a_basic_usart.o
 .text$USART_Get_WUEN_Flag
                0x00000000       0x1c ./system/src/kf32a_basic_usart.o
 .text$USART_Get_Transmit_BUFR_Empty_Flag
                0x00000000       0x1e ./system/src/kf32a_basic_usart.o
 .text$USART_Get_Receive_Frame_Idel_Flag
                0x00000000       0x1e ./system/src/kf32a_basic_usart.o
 .text$USART_Clear_Receive_Overflow_INT_Flag
                0x00000000       0x22 ./system/src/kf32a_basic_usart.o
 .text$USART_Clear_Parity_ERROR_INT_Flag
                0x00000000       0x22 ./system/src/kf32a_basic_usart.o
 .text$USART_Clear_Frame_ERROR_INT_Flag
                0x00000000       0x22 ./system/src/kf32a_basic_usart.o
 .text$USART_Clear_Blank_INT_Flag
                0x00000000       0x22 ./system/src/kf32a_basic_usart.o
 .text$USART_Clear_Auto_BaudRate_TimeOver_INT_Flag
                0x00000000       0x22 ./system/src/kf32a_basic_usart.o
 .text$USART_Clear_WeakUP_INT_Flag
                0x00000000       0x22 ./system/src/kf32a_basic_usart.o
 .text$USART_Clear_Transmit_ERROR_INT_Flag
                0x00000000       0x22 ./system/src/kf32a_basic_usart.o
 .text$USART_Clear_Receive_ERROR_INT_Flag
                0x00000000       0x22 ./system/src/kf32a_basic_usart.o
 .text$USART_Clear_CTS_INT_Flag
                0x00000000       0x24 ./system/src/kf32a_basic_usart.o
 .text$USART_Clear_UADM_INT_Flag
                0x00000000       0x24 ./system/src/kf32a_basic_usart.o
 .text$USART_Clear_IDLE_INT_Flag
                0x00000000       0x24 ./system/src/kf32a_basic_usart.o
 .text$USART_Clear_Receive_BUFR_INT_Flag
                0x00000000       0x24 ./system/src/kf32a_basic_usart.o
 .text          0x00000000        0x0 ./system/src/kf32a_basic_usb.o
 .data          0x00000000        0x0 ./system/src/kf32a_basic_usb.o
 .bss           0x00000000        0x0 ./system/src/kf32a_basic_usb.o
 .text          0x00000000        0x0 ./system/src/kf32a_basic_wwdt.o
 .data          0x00000000        0x0 ./system/src/kf32a_basic_wwdt.o
 .bss           0x00000000        0x0 ./system/src/kf32a_basic_wwdt.o
 .text$SFR_Config
                0x00000000       0x18 ./system/src/kf32a_basic_wwdt.o
 .text$WWDT_Reset
                0x00000000       0x28 ./system/src/kf32a_basic_wwdt.o
 .text$WWDT_Threshold_Config
                0x00000000       0x3c ./system/src/kf32a_basic_wwdt.o
 .text$WWDT_Prescaler_Config
                0x00000000       0x30 ./system/src/kf32a_basic_wwdt.o
 .text$WWDT_Enable
                0x00000000       0x1c ./system/src/kf32a_basic_wwdt.o
 .text$WWDT_Counter_Config
                0x00000000       0x14 ./system/src/kf32a_basic_wwdt.o
 .text$WWDT_Get_Counter
                0x00000000       0x1c ./system/src/kf32a_basic_wwdt.o
 .text$WWDT_INT_Enable
                0x00000000       0x1c ./system/src/kf32a_basic_wwdt.o
 .text$WWDT_Get_INT_Flag
                0x00000000       0x1c ./system/src/kf32a_basic_wwdt.o
 .text$WWDT_Clear_INT_Flag
                0x00000000       0x1c ./system/src/kf32a_basic_wwdt.o
 .text          0x00000000        0x0 ./system/startup.o
 .data          0x00000000        0x0 ./system/startup.o
 .bss           0x00000000        0x0 ./system/startup.o
 .text          0x00000000        0x0 ./system/system_init.o
 .data          0x00000000        0x0 ./system/system_init.o
 .bss           0x00000000        0x0 ./system/system_init.o
 .bss$static$fac_us
                0x00000000        0x1 ./system/system_init.o
 .bss$static$fac_ms
                0x00000000        0x2 ./system/system_init.o
 .text$SetSysClock
                0x00000000      0x140 ./system/system_init.o
 .text$Config_Out_Clock
                0x00000000       0x58 ./system/system_init.o
 .text$systick_delay_init
                0x00000000       0x30 ./system/system_init.o
 .text$systick_delay_us
                0x00000000       0x5c ./system/system_init.o
 .text$systick_delay_ms
                0x00000000       0x5c ./system/system_init.o
 .text$SystemCoreClockUpdate
                0x00000000      0x11c ./system/system_init.o
 .data          0x00000000        0x0 ./system/vector.o
 .bss           0x00000000        0x0 ./system/vector.o
 .text          0x00000000        0x0 ./source/MeterConfig.o
 .data          0x00000000        0x0 ./source/MeterConfig.o
 .bss           0x00000000        0x0 ./source/MeterConfig.o
 .bss$comm$pcan_off_line
                0x00000000        0x1 ./source/MeterConfig.o
 .text$All_Pwm  0x00000000       0x24 ./source/MeterConfig.o
 .text          0x00000000        0x0 ./source/T123.o
 .data          0x00000000        0x0 ./source/T123.o
 .bss           0x00000000        0x0 ./source/T123.o
 .text$fifo_reset
                0x00000000       0x1a ./source/T123.o
 .text          0x00000000        0x0 ./source/bootloader.o
 .data          0x00000000        0x0 ./source/bootloader.o
 .bss           0x00000000        0x0 ./source/bootloader.o
 .data$init$BootCanDisable
                0x00000000        0x1 ./source/bootloader.o
 .data$static$can_handle
                0x00000000        0x4 ./source/bootloader.o
 .text$InitSendFrame
                0x00000000       0x48 ./source/bootloader.o
 .text$BootloaderHandleRxMsg
                0x00000000       0x90 ./source/bootloader.o
 .text$BootloaderInit
                0x00000000       0x20 ./source/bootloader.o
 .text          0x00000000        0x0 ./source/canreceive.o
 .data          0x00000000        0x0 ./source/canreceive.o
 .bss           0x00000000        0x0 ./source/canreceive.o
 .text$ClearData
                0x00000000       0x2c ./source/canreceive.o
 .text          0x00000000        0x0 ./source/display.o
 .data          0x00000000        0x0 ./source/display.o
 .bss           0x00000000        0x0 ./source/display.o
 .data$static$diya_time.6567
                0x00000000        0x1 ./source/display.o
 .data$static$xiaoqong_time.6564
                0x00000000        0x1 ./source/display.o
 .data$static$turn_time.6561
                0x00000000        0x1 ./source/display.o
 .data$static$daqi_time.6558
                0x00000000        0x1 ./source/display.o
 .data$static$motor_time.6555
                0x00000000        0x1 ./source/display.o
 .data$static$bms_time.6552
                0x00000000        0x1 ./source/display.o
 .data$static$batnum.6427
                0x00000000        0x4 ./source/display.o
 .data$static$subinitflag.6426
                0x00000000        0x4 ./source/display.o
 .text          0x00000000        0x0 ./source/displayhelper.o
 .data          0x00000000        0x0 ./source/displayhelper.o
 .bss           0x00000000        0x0 ./source/displayhelper.o
 .data$static$falg.7143
                0x00000000        0x1 ./source/displayhelper.o
 .data$static$count.7099
                0x00000000        0x1 ./source/displayhelper.o
 .data$static$setbcd.6792
                0x00000000        0xa ./source/displayhelper.o
 .data$static$setbcd.6773
                0x00000000        0xa ./source/displayhelper.o
 .data$static$setbcd.6754
                0x00000000        0xa ./source/displayhelper.o
 .data$static$setbcd.6735
                0x00000000        0xa ./source/displayhelper.o
 .data$static$setbcd.6716
                0x00000000        0xa ./source/displayhelper.o
 .data$static$setbcd.6413
                0x00000000        0xa ./source/displayhelper.o
 .data$static$setbcd.6394
                0x00000000        0xa ./source/displayhelper.o
 .data$static$vedio_menu.6307
                0x00000000        0x1 ./source/displayhelper.o
 .text          0x00000000        0x0 ./source/eeprom.o
 .data          0x00000000        0x0 ./source/eeprom.o
 .bss           0x00000000        0x0 ./source/eeprom.o
 .bss$comm$Set_Bus_Type
                0x00000000        0x1 ./source/eeprom.o
 .bss$comm$Set_odometer_const_2012
                0x00000000        0x2 ./source/eeprom.o
 .text$ReadCheckSum
                0x00000000       0x40 ./source/eeprom.o
 .text          0x00000000        0x0 ./source/kf_it.o
 .data          0x00000000        0x0 ./source/kf_it.o
 .bss           0x00000000        0x0 ./source/kf_it.o
 .rdata$Rec.6295
                0x00000000        0x4 ./source/kf_it.o
 .text          0x00000000        0x0 ./source/main.o
 .data          0x00000000        0x0 ./source/main.o
 .bss           0x00000000        0x0 ./source/main.o
 .text$TestCan  0x00000000       0x7c ./source/main.o
 .text$check_failed
                0x00000000        0x8 ./source/main.o
 .bss$static$data.6257
                0x00000000        0x8 ./source/main.o
 .bss$static$life.6258
                0x00000000        0x1 ./source/main.o
 .text          0x00000000        0x0 ./source/switch.o
 .data          0x00000000        0x0 ./source/switch.o
 .bss           0x00000000        0x0 ./source/switch.o
 .text          0x00000000        0x0 ./source/system.o
 .data          0x00000000        0x0 ./source/system.o
 .bss           0x00000000        0x0 ./source/system.o
 .bss$comm$niuniu
                0x00000000        0x1 ./source/system.o
 .bss$comm$A15Count
                0x00000000        0x4 ./source/system.o
 .bss$comm$Pre_odo
                0x00000000        0x4 ./source/system.o
 .bss$comm$speed_count
                0x00000000        0x2 ./source/system.o
 .bss$comm$An_Kai_Handle_Time
                0x00000000        0x1 ./source/system.o
 .bss$comm$fuel_percent
                0x00000000        0x1 ./source/system.o
 .text$CaultOdo
                0x00000000       0x9c ./source/system.o
 .bss$comm$version
                0x00000000        0x8 ./source/system.o
 .text$Edition  0x00000000       0x4c ./source/system.o
 .text$UpdateSomeing
                0x00000000       0x64 ./source/system.o
 .text$GetFuel  0x00000000      0x180 ./source/system.o
 .text$specical_buzz
                0x00000000       0x48 ./source/system.o
 .text$calulate_speed
                0x00000000      0x12c ./source/system.o
 .bss$static$temp3.6463
                0x00000000        0x1 ./source/system.o
 .bss$static$temp2.6462
                0x00000000        0x1 ./source/system.o
 .bss$static$temp1.6461
                0x00000000        0x1 ./source/system.o
 .bss$static$cur_speed_freq.6432
                0x00000000        0x2 ./source/system.o
 .bss$static$speed_freq.6433
                0x00000000        0x2 ./source/system.o
 .bss$static$time.6420
                0x00000000        0x1 ./source/system.o
 .bss$static$flag_30s.6390
                0x00000000        0x1 ./source/system.o
 .bss$static$timexx.6387
                0x00000000        0x2 ./source/system.o
 .data$static$time.6385
                0x00000000        0x2 ./source/system.o
 .bss$static$life.6343
                0x00000000        0x1 ./source/system.o
 .bss$static$i.6342
                0x00000000        0x1 ./source/system.o
 .data$static$hit_time.6341
                0x00000000        0x1 ./source/system.o
 .data$static$time.6339
                0x00000000        0x1 ./source/system.o
 .text          0x00000000        0x0 ./driver/Adc.o
 .data          0x00000000        0x0 ./driver/Adc.o
 .bss           0x00000000        0x0 ./driver/Adc.o
 .bss$comm$Volt
                0x00000000        0x2 ./driver/Adc.o
 .bss$comm$ResultBat
                0x00000000        0x2 ./driver/Adc.o
 .bss$comm$ResultPA2
                0x00000000        0x2 ./driver/Adc.o
 .bss$comm$ResultPA3
                0x00000000        0x2 ./driver/Adc.o
 .bss$comm$ResultPA4
                0x00000000        0x2 ./driver/Adc.o
 .bss$comm$ResultPA13
                0x00000000        0x2 ./driver/Adc.o
 .bss$comm$ResultPA14
                0x00000000        0x2 ./driver/Adc.o
 .text          0x00000000        0x0 ./driver/Bcan.o
 .data          0x00000000        0x0 ./driver/Bcan.o
 .bss           0x00000000        0x0 ./driver/Bcan.o
 .text$BcanID   0x00000000       0x38 ./driver/Bcan.o
 .text$BcanGetIDFromIndex
                0x00000000       0x24 ./driver/Bcan.o
 .text          0x00000000        0x0 ./driver/Dcan.o
 .data          0x00000000        0x0 ./driver/Dcan.o
 .bss           0x00000000        0x0 ./driver/Dcan.o
 .bss$comm$DCanSendbuffx
                0x00000000      0x500 ./driver/Dcan.o
 .bss$comm$DCandomsg
                0x00000000       0x14 ./driver/Dcan.o
 .text$Dcan_fifo_init
                0x00000000       0x2a ./driver/Dcan.o
 .text$InitDCanSend
                0x00000000       0x28 ./driver/Dcan.o
 .text$DCan_Standard_Tx_Bytes
                0x00000000       0xcc ./driver/Dcan.o
 .text$DCanSendFifo
                0x00000000       0xb0 ./driver/Dcan.o
 .text$DCanSendTo
                0x00000000       0xc0 ./driver/Dcan.o
 .text          0x00000000        0x0 ./driver/Emios.o
 .data          0x00000000        0x0 ./driver/Emios.o
 .bss           0x00000000        0x0 ./driver/Emios.o
 .text$CCP2021_PWM_PPX_Duty
                0x00000000       0xb4 ./driver/Emios.o
 .text$CCPx_Capture_GPIO_Init
                0x00000000      0x13c ./driver/Emios.o
 .text$CCPx_Capture_Mode_init
                0x00000000       0xb8 ./driver/Emios.o
 .bss$static$GpioPinNum.6300
                0x00000000        0x2 ./driver/Emios.o
 .text          0x00000000        0x0 ./driver/Pcan.o
 .data          0x00000000        0x0 ./driver/Pcan.o
 .bss           0x00000000        0x0 ./driver/Pcan.o
 .text$PCan_Standard_Tx_Bytes
                0x00000000       0xcc ./driver/Pcan.o
 .text          0x00000000        0x0 ./driver/Rtc.o
 .data          0x00000000        0x0 ./driver/Rtc.o
 .bss           0x00000000        0x0 ./driver/Rtc.o
 .text          0x00000000        0x0 ./driver/Usart.o
 .data          0x00000000        0x0 ./driver/Usart.o
 .bss           0x00000000        0x0 ./driver/Usart.o
 .text$USART_Sync_config
                0x00000000       0x8c ./driver/Usart.o
 .text$USART2_Async_config
                0x00000000       0x80 ./driver/Usart.o
 .text$Uart2Send
                0x00000000       0x20 ./driver/Usart.o
 .text$Usart_line_feed
                0x00000000       0x40 ./driver/Usart.o
 .text          0x00000000        0x0 ./driver/can.o
 .data          0x00000000        0x0 ./driver/can.o
 .bss           0x00000000        0x0 ./driver/can.o
 .text$Can_Standard_Tx_Bytes
                0x00000000       0xcc ./driver/can.o
 .text          0x00000000        0x0 ./driver/canfifo.o
 .data          0x00000000        0x0 ./driver/canfifo.o
 .bss           0x00000000        0x0 ./driver/canfifo.o
 .text          0x00000000        0x0 ./driver/flash.o
 .data          0x00000000        0x0 ./driver/flash.o
 .bss           0x00000000        0x0 ./driver/flash.o
 .text$FLASH_WriteCODE_ONE
                0x00000000       0x3c ./driver/flash.o
 .text$FLASH_HALFPAGE_WRITECODE_fun
                0x00000000       0x3c ./driver/flash.o
 .text$FLASH_PageWrite_fun
                0x00000000       0xe0 ./driver/flash.o
 .text$FLASH_WriteCFG_ONE
                0x00000000       0x3c ./driver/flash.o
 .text$FLASH_HALFPAGE_WRITECFG_fun
                0x00000000       0x3c ./driver/flash.o
 .text$FLASH_PageWrite_CFG_fun
                0x00000000       0xd4 ./driver/flash.o
 .text$FLASH_WriteByte
                0x00000000       0x54 ./driver/flash.o
 .text$FLASH_WriteHalfWord
                0x00000000       0x54 ./driver/flash.o
 .text$FLASH_WriteNByte
                0x00000000       0x40 ./driver/flash.o
 .text$FLASH_ReadByte
                0x00000000       0x28 ./driver/flash.o
 .text$FLASH_ReadHalWord
                0x00000000       0x28 ./driver/flash.o
 .text$FLASH_ReadDWord
                0x00000000       0x3c ./driver/flash.o
 .text$FLASH_ReadNByte
                0x00000000       0x4c ./driver/flash.o
 .bss$static$Flash_Buff1.6299
                0x00000000      0x200 ./driver/flash.o
 .bss$static$Flash_Buff2.6300
                0x00000000      0x200 ./driver/flash.o
 .bss$static$Flash_Buff1.6267
                0x00000000      0x200 ./driver/flash.o
 .bss$static$Flash_Buff2.6268
                0x00000000      0x200 ./driver/flash.o
 .text          0x00000000        0x0 ./driver/gpio.o
 .data          0x00000000        0x0 ./driver/gpio.o
 .bss           0x00000000        0x0 ./driver/gpio.o
 .text          0x00000000        0x0 ./driver/iic.o
 .data          0x00000000        0x0 ./driver/iic.o
 .bss           0x00000000        0x0 ./driver/iic.o
 .text          0x00000000        0x0 ./driver/key.o
 .data          0x00000000        0x0 ./driver/key.o
 .bss           0x00000000        0x0 ./driver/key.o
 .text          0x00000000        0x0 ./driver/keyfif.o
 .data          0x00000000        0x0 ./driver/keyfif.o
 .bss           0x00000000        0x0 ./driver/keyfif.o
 .text$message_init
                0x00000000       0x68 ./driver/keyfif.o
 .text          0x00000000        0x0 ./driver/led.o
 .data          0x00000000        0x0 ./driver/led.o
 .bss           0x00000000        0x0 ./driver/led.o
 .text          0x00000000        0x0 ./driver/motor.o
 .data          0x00000000        0x0 ./driver/motor.o
 .bss           0x00000000        0x0 ./driver/motor.o
 .data$static$flag.6313
                0x00000000        0x1 ./driver/motor.o
 .text          0x00000000        0x0 ./driver/output.o
 .data          0x00000000        0x0 ./driver/output.o
 .bss           0x00000000        0x0 ./driver/output.o
 .text          0x00000000        0x0 ./driver/pwm.o
 .data          0x00000000        0x0 ./driver/pwm.o
 .bss           0x00000000        0x0 ./driver/pwm.o
 .text          0x00000000        0x0 ./driver/sch.o
 .data          0x00000000        0x0 ./driver/sch.o
 .bss           0x00000000        0x0 ./driver/sch.o
 .text          0x00000000        0x0 ./driver/timer.o
 .data          0x00000000        0x0 ./driver/timer.o
 .bss           0x00000000        0x0 ./driver/timer.o
 .text          0x00000000        0x0 ./driver/watchdog.o
 .data          0x00000000        0x0 ./driver/watchdog.o
 .bss           0x00000000        0x0 ./driver/watchdog.o
 .data$init$WWDGCNT_DATA
                0x00000000        0x4 ./driver/watchdog.o
 .text$WWDT_Config_TH
                0x00000000       0x34 ./driver/watchdog.o
 .text$WWDT_Clear
                0x00000000       0x34 ./driver/watchdog.o
 .text          0x00000000        0x0 C:/Program Files (x86)/ChipON IDE/KungFu32/ChiponCC32/ccr1_issue_v0/lib/libcrtv1.a(adddf3.o)
 .data          0x00000000        0x0 C:/Program Files (x86)/ChipON IDE/KungFu32/ChiponCC32/ccr1_issue_v0/lib/libcrtv1.a(adddf3.o)
 .bss           0x00000000        0x0 C:/Program Files (x86)/ChipON IDE/KungFu32/ChiponCC32/ccr1_issue_v0/lib/libcrtv1.a(adddf3.o)
 .text$__adddf3
                0x00000000      0x5e8 C:/Program Files (x86)/ChipON IDE/KungFu32/ChiponCC32/ccr1_issue_v0/lib/libcrtv1.a(adddf3.o)
 .text          0x00000000        0x0 C:/Program Files (x86)/ChipON IDE/KungFu32/ChiponCC32/ccr1_issue_v0/lib/libcrtv1.a(addsf3.o)
 .data          0x00000000        0x0 C:/Program Files (x86)/ChipON IDE/KungFu32/ChiponCC32/ccr1_issue_v0/lib/libcrtv1.a(addsf3.o)
 .bss           0x00000000        0x0 C:/Program Files (x86)/ChipON IDE/KungFu32/ChiponCC32/ccr1_issue_v0/lib/libcrtv1.a(addsf3.o)
 .text          0x00000000        0x0 C:/Program Files (x86)/ChipON IDE/KungFu32/ChiponCC32/ccr1_issue_v0/lib/libcrtv1.a(divdf3.o)
 .data          0x00000000        0x0 C:/Program Files (x86)/ChipON IDE/KungFu32/ChiponCC32/ccr1_issue_v0/lib/libcrtv1.a(divdf3.o)
 .bss           0x00000000        0x0 C:/Program Files (x86)/ChipON IDE/KungFu32/ChiponCC32/ccr1_issue_v0/lib/libcrtv1.a(divdf3.o)
 .text          0x00000000        0x0 C:/Program Files (x86)/ChipON IDE/KungFu32/ChiponCC32/ccr1_issue_v0/lib/libcrtv1.a(divsf3.o)
 .data          0x00000000        0x0 C:/Program Files (x86)/ChipON IDE/KungFu32/ChiponCC32/ccr1_issue_v0/lib/libcrtv1.a(divsf3.o)
 .bss           0x00000000        0x0 C:/Program Files (x86)/ChipON IDE/KungFu32/ChiponCC32/ccr1_issue_v0/lib/libcrtv1.a(divsf3.o)
 .text          0x00000000        0x0 C:/Program Files (x86)/ChipON IDE/KungFu32/ChiponCC32/ccr1_issue_v0/lib/libcrtv1.a(fixunsdfsi.o)
 .data          0x00000000        0x0 C:/Program Files (x86)/ChipON IDE/KungFu32/ChiponCC32/ccr1_issue_v0/lib/libcrtv1.a(fixunsdfsi.o)
 .bss           0x00000000        0x0 C:/Program Files (x86)/ChipON IDE/KungFu32/ChiponCC32/ccr1_issue_v0/lib/libcrtv1.a(fixunsdfsi.o)
 .text          0x00000000        0x0 C:/Program Files (x86)/ChipON IDE/KungFu32/ChiponCC32/ccr1_issue_v0/lib/libcrtv1.a(fixunssfsi.o)
 .data          0x00000000        0x0 C:/Program Files (x86)/ChipON IDE/KungFu32/ChiponCC32/ccr1_issue_v0/lib/libcrtv1.a(fixunssfsi.o)
 .bss           0x00000000        0x0 C:/Program Files (x86)/ChipON IDE/KungFu32/ChiponCC32/ccr1_issue_v0/lib/libcrtv1.a(fixunssfsi.o)
 .text          0x00000000        0x0 C:/Program Files (x86)/ChipON IDE/KungFu32/ChiponCC32/ccr1_issue_v0/lib/libcrtv1.a(floatsidf.o)
 .data          0x00000000        0x0 C:/Program Files (x86)/ChipON IDE/KungFu32/ChiponCC32/ccr1_issue_v0/lib/libcrtv1.a(floatsidf.o)
 .bss           0x00000000        0x0 C:/Program Files (x86)/ChipON IDE/KungFu32/ChiponCC32/ccr1_issue_v0/lib/libcrtv1.a(floatsidf.o)
 .text          0x00000000        0x0 C:/Program Files (x86)/ChipON IDE/KungFu32/ChiponCC32/ccr1_issue_v0/lib/libcrtv1.a(floatsisf.o)
 .data          0x00000000        0x0 C:/Program Files (x86)/ChipON IDE/KungFu32/ChiponCC32/ccr1_issue_v0/lib/libcrtv1.a(floatsisf.o)
 .bss           0x00000000        0x0 C:/Program Files (x86)/ChipON IDE/KungFu32/ChiponCC32/ccr1_issue_v0/lib/libcrtv1.a(floatsisf.o)
 .text          0x00000000        0x0 C:/Program Files (x86)/ChipON IDE/KungFu32/ChiponCC32/ccr1_issue_v0/lib/libcrtv1.a(floatunsisf.o)
 .data          0x00000000        0x0 C:/Program Files (x86)/ChipON IDE/KungFu32/ChiponCC32/ccr1_issue_v0/lib/libcrtv1.a(floatunsisf.o)
 .bss           0x00000000        0x0 C:/Program Files (x86)/ChipON IDE/KungFu32/ChiponCC32/ccr1_issue_v0/lib/libcrtv1.a(floatunsisf.o)
 .text          0x00000000        0x0 C:/Program Files (x86)/ChipON IDE/KungFu32/ChiponCC32/ccr1_issue_v0/lib/libcrtv1.a(gedf2.o)
 .data          0x00000000        0x0 C:/Program Files (x86)/ChipON IDE/KungFu32/ChiponCC32/ccr1_issue_v0/lib/libcrtv1.a(gedf2.o)
 .bss           0x00000000        0x0 C:/Program Files (x86)/ChipON IDE/KungFu32/ChiponCC32/ccr1_issue_v0/lib/libcrtv1.a(gedf2.o)
 .text          0x00000000        0x0 C:/Program Files (x86)/ChipON IDE/KungFu32/ChiponCC32/ccr1_issue_v0/lib/libcrtv1.a(gesf2.o)
 .data          0x00000000        0x0 C:/Program Files (x86)/ChipON IDE/KungFu32/ChiponCC32/ccr1_issue_v0/lib/libcrtv1.a(gesf2.o)
 .bss           0x00000000        0x0 C:/Program Files (x86)/ChipON IDE/KungFu32/ChiponCC32/ccr1_issue_v0/lib/libcrtv1.a(gesf2.o)
 .text          0x00000000        0x0 C:/Program Files (x86)/ChipON IDE/KungFu32/ChiponCC32/ccr1_issue_v0/lib/libcrtv1.a(ledf2.o)
 .data          0x00000000        0x0 C:/Program Files (x86)/ChipON IDE/KungFu32/ChiponCC32/ccr1_issue_v0/lib/libcrtv1.a(ledf2.o)
 .bss           0x00000000        0x0 C:/Program Files (x86)/ChipON IDE/KungFu32/ChiponCC32/ccr1_issue_v0/lib/libcrtv1.a(ledf2.o)
 .text          0x00000000        0x0 C:/Program Files (x86)/ChipON IDE/KungFu32/ChiponCC32/ccr1_issue_v0/lib/libcrtv1.a(muldf3.o)
 .data          0x00000000        0x0 C:/Program Files (x86)/ChipON IDE/KungFu32/ChiponCC32/ccr1_issue_v0/lib/libcrtv1.a(muldf3.o)
 .bss           0x00000000        0x0 C:/Program Files (x86)/ChipON IDE/KungFu32/ChiponCC32/ccr1_issue_v0/lib/libcrtv1.a(muldf3.o)
 .text          0x00000000        0x0 C:/Program Files (x86)/ChipON IDE/KungFu32/ChiponCC32/ccr1_issue_v0/lib/libcrtv1.a(mulsf3.o)
 .data          0x00000000        0x0 C:/Program Files (x86)/ChipON IDE/KungFu32/ChiponCC32/ccr1_issue_v0/lib/libcrtv1.a(mulsf3.o)
 .bss           0x00000000        0x0 C:/Program Files (x86)/ChipON IDE/KungFu32/ChiponCC32/ccr1_issue_v0/lib/libcrtv1.a(mulsf3.o)
 .text          0x00000000        0x0 C:/Program Files (x86)/ChipON IDE/KungFu32/ChiponCC32/ccr1_issue_v0/lib/libcrtv1.a(subdf3.o)
 .data          0x00000000        0x0 C:/Program Files (x86)/ChipON IDE/KungFu32/ChiponCC32/ccr1_issue_v0/lib/libcrtv1.a(subdf3.o)
 .bss           0x00000000        0x0 C:/Program Files (x86)/ChipON IDE/KungFu32/ChiponCC32/ccr1_issue_v0/lib/libcrtv1.a(subdf3.o)
 .text$__subdf3
                0x00000000      0x5bc C:/Program Files (x86)/ChipON IDE/KungFu32/ChiponCC32/ccr1_issue_v0/lib/libcrtv1.a(subdf3.o)
 .text          0x00000000        0x0 C:/Program Files (x86)/ChipON IDE/KungFu32/ChiponCC32/ccr1_issue_v0/lib/libcrtv1.a(subsf3.o)
 .data          0x00000000        0x0 C:/Program Files (x86)/ChipON IDE/KungFu32/ChiponCC32/ccr1_issue_v0/lib/libcrtv1.a(subsf3.o)
 .bss           0x00000000        0x0 C:/Program Files (x86)/ChipON IDE/KungFu32/ChiponCC32/ccr1_issue_v0/lib/libcrtv1.a(subsf3.o)
 .text          0x00000000        0x0 C:/Program Files (x86)/ChipON IDE/KungFu32/ChiponCC32/ccr1_issue_v0/lib/libcrtv1.a(truncdfsf2.o)
 .data          0x00000000        0x0 C:/Program Files (x86)/ChipON IDE/KungFu32/ChiponCC32/ccr1_issue_v0/lib/libcrtv1.a(truncdfsf2.o)
 .bss           0x00000000        0x0 C:/Program Files (x86)/ChipON IDE/KungFu32/ChiponCC32/ccr1_issue_v0/lib/libcrtv1.a(truncdfsf2.o)
 .text          0x00000000        0x0 C:/Program Files (x86)/ChipON IDE/KungFu32/ChiponCC32/ccr1_issue_v0/lib/libcrtv1.a(__clzsi2.o)
 .data          0x00000000        0x0 C:/Program Files (x86)/ChipON IDE/KungFu32/ChiponCC32/ccr1_issue_v0/lib/libcrtv1.a(__clzsi2.o)
 .bss           0x00000000        0x0 C:/Program Files (x86)/ChipON IDE/KungFu32/ChiponCC32/ccr1_issue_v0/lib/libcrtv1.a(__clzsi2.o)
 .text$__clzdi2
                0x00000000       0x1c C:/Program Files (x86)/ChipON IDE/KungFu32/ChiponCC32/ccr1_issue_v0/lib/libcrtv1.a(__clzsi2.o)

@@@@@Memory Configuration

Name             Origin             Length             Attributes
flash            0x00000000         0x00080000
ram              0x10000000         0x00020000
da_mem           0x0c001c00         0x00000400
mode_mem         0x0c001800         0x00000004
pro_mem          0x0c001000         0x00000004
ee_mem           0x7f000000         0x00001000
config_mem1      0x31000000         0x00000010
config_mem2      0x31000010         0x00000010
*default*        0x00000000         0xffffffff

@@@@@Linker script and memory map

LOAD ./system/src/kf32a_basic_adc.o
LOAD ./system/src/kf32a_basic_aes.o
LOAD ./system/src/kf32a_basic_atim.o
LOAD ./system/src/kf32a_basic_bkp.o
LOAD ./system/src/kf32a_basic_btim.o
LOAD ./system/src/kf32a_basic_can.o
LOAD ./system/src/kf32a_basic_cfgl.o
LOAD ./system/src/kf32a_basic_cmp.o
LOAD ./system/src/kf32a_basic_crc.o
LOAD ./system/src/kf32a_basic_dac.o
LOAD ./system/src/kf32a_basic_dma.o
LOAD ./system/src/kf32a_basic_exic.o
LOAD ./system/src/kf32a_basic_flash.o
LOAD ./system/src/kf32a_basic_gpio.o
LOAD ./system/src/kf32a_basic_gptim.o
LOAD ./system/src/kf32a_basic_i2c.o
LOAD ./system/src/kf32a_basic_int.o
LOAD ./system/src/kf32a_basic_iwdt.o
LOAD ./system/src/kf32a_basic_lcd.o
LOAD ./system/src/kf32a_basic_led.o
LOAD ./system/src/kf32a_basic_op.o
LOAD ./system/src/kf32a_basic_osc.o
LOAD ./system/src/kf32a_basic_pclk.o
LOAD ./system/src/kf32a_basic_pm.o
LOAD ./system/src/kf32a_basic_qei.o
LOAD ./system/src/kf32a_basic_rst.o
LOAD ./system/src/kf32a_basic_rtc.o
LOAD ./system/src/kf32a_basic_spi.o
LOAD ./system/src/kf32a_basic_sysctl.o
LOAD ./system/src/kf32a_basic_systick.o
LOAD ./system/src/kf32a_basic_usart.o
LOAD ./system/src/kf32a_basic_usb.o
LOAD ./system/src/kf32a_basic_wwdt.o
LOAD ./system/startup.o
LOAD ./system/system_init.o
LOAD ./system/vector.o
LOAD ./source/MeterConfig.o
LOAD ./source/T123.o
LOAD ./source/bootloader.o
LOAD ./source/canreceive.o
LOAD ./source/display.o
LOAD ./source/displayhelper.o
LOAD ./source/eeprom.o
LOAD ./source/kf_it.o
LOAD ./source/main.o
LOAD ./source/switch.o
LOAD ./source/system.o
LOAD ./driver/Adc.o
LOAD ./driver/Bcan.o
LOAD ./driver/Dcan.o
LOAD ./driver/Emios.o
LOAD ./driver/Pcan.o
LOAD ./driver/Rtc.o
LOAD ./driver/Usart.o
LOAD ./driver/can.o
LOAD ./driver/canfifo.o
LOAD ./driver/flash.o
LOAD ./driver/gpio.o
LOAD ./driver/iic.o
LOAD ./driver/key.o
LOAD ./driver/keyfif.o
LOAD ./driver/led.o
LOAD ./driver/motor.o
LOAD ./driver/output.o
LOAD ./driver/pwm.o
LOAD ./driver/sch.o
LOAD ./driver/timer.o
LOAD ./driver/watchdog.o
LOAD C:/Program Files (x86)/ChipON IDE/KungFu32/ChiponCC32/ccr1_issue_v0/lib/libIQmath-R1.a
LOAD C:/Program Files (x86)/ChipON IDE/KungFu32/ChiponCC32/ccr1_issue_v0/lib/libSeriesDIServices.a
LOAD C:/Program Files (x86)/ChipON IDE/KungFu32/ChiponCC32/ccr1_issue_v0/lib/libmath.a
LOAD C:/Program Files (x86)/ChipON IDE/KungFu32/ChiponCC32/ccr1_issue_v0/lib/libio.a
LOAD C:/Program Files (x86)/ChipON IDE/KungFu32/ChiponCC32/ccr1_issue_v0/lib/libstring.a
LOAD C:/Program Files (x86)/ChipON IDE/KungFu32/ChiponCC32/ccr1_issue_v0/lib/libstdlib.a
LOAD C:/Program Files (x86)/ChipON IDE/KungFu32/ChiponCC32/ccr1_issue_v0/lib/libctype.a
LOAD C:/Program Files (x86)/ChipON IDE/KungFu32/ChiponCC32/ccr1_issue_v0/lib/libcrtv1.a

.text           0x00000000    0x23a28
                0x00000000                . = 0x0
 *vector.o(.initvec*)
 .initvec$_start
                0x00000000      0x200 ./system/vector.o
                0x00000000                _start
                0x00008000                . = 0x8000
 *fill*         0x00000200     0x7e00 
                0x00008000                __vec_start__ = .
 *vector.o(.text*)
 .text          0x00008000        0x0 ./system/vector.o
 .text$_startx  0x00008000      0x200 ./system/vector.o
                0x00008000                _startx
                0x00008200                . = ((. + 0x3) & 0xfffffffc)
                0x00008200                __vec_end__ = .
                0x00008400                . = 0x8400
 *fill*         0x00008200      0x200 
 *(.text*)
 .text$SFR_Config
                0x00008400       0x18 ./system/src/kf32a_basic_adc.o
 .text$ADC_Reset
                0x00008418       0x94 ./system/src/kf32a_basic_adc.o
                0x00008418                ADC_Reset
 .text$ADC_Configuration
                0x000084ac       0xd0 ./system/src/kf32a_basic_adc.o
                0x000084ac                ADC_Configuration
 .text$ADC_Cmd  0x0000857c       0x1a ./system/src/kf32a_basic_adc.o
                0x0000857c                ADC_Cmd
 *fill*         0x00008596        0x2 
 .text$ADC_Regular_Channel_Config
                0x00008598      0x114 ./system/src/kf32a_basic_adc.o
                0x00008598                ADC_Regular_Channel_Config
 .text$ADC_Software_Start_Conv
                0x000086ac        0xe ./system/src/kf32a_basic_adc.o
                0x000086ac                ADC_Software_Start_Conv
 .text$ADC_Get_Conversion_Value
                0x000086ba       0x18 ./system/src/kf32a_basic_adc.o
                0x000086ba                ADC_Get_Conversion_Value
 .text$ADC_Get_INT_Flag
                0x000086d2       0x36 ./system/src/kf32a_basic_adc.o
                0x000086d2                ADC_Get_INT_Flag
 .text$TIM_Reset
                0x00008708      0x308 ./system/src/kf32a_basic_btim.o
                0x00008708                TIM_Reset
 .text$SFR_Config
                0x00008a10       0x18 ./system/src/kf32a_basic_can.o
 .text$CAN_Reset
                0x00008a28      0x10c ./system/src/kf32a_basic_can.o
                0x00008a28                CAN_Reset
 .text$CAN_Configuration
                0x00008b34       0x98 ./system/src/kf32a_basic_can.o
                0x00008b34                CAN_Configuration
 .text$CAN_Get_Transmit_Status
                0x00008bcc       0x26 ./system/src/kf32a_basic_can.o
                0x00008bcc                CAN_Get_Transmit_Status
 .text$CAN_Reset_Mode_Enable
                0x00008bf2       0x1a ./system/src/kf32a_basic_can.o
                0x00008bf2                CAN_Reset_Mode_Enable
 .text$CAN_Transmit_Message_Configuration
                0x00008c0c      0x138 ./system/src/kf32a_basic_can.o
                0x00008c0c                CAN_Transmit_Message_Configuration
 .text$CAN_Receive_Message_Configuration
                0x00008d44      0x230 ./system/src/kf32a_basic_can.o
                0x00008d44                CAN_Receive_Message_Configuration
 .text$CAN_Release_Receive_Buffer
                0x00008f74       0x54 ./system/src/kf32a_basic_can.o
                0x00008f74                CAN_Release_Receive_Buffer
 .text$CAN_Get_INT_Flag
                0x00008fc8       0x26 ./system/src/kf32a_basic_can.o
                0x00008fc8                CAN_Get_INT_Flag
 .text$CAN_Clear_INT_Flag
                0x00008fee       0x3e ./system/src/kf32a_basic_can.o
                0x00008fee                CAN_Clear_INT_Flag
 .text$CAN_Set_INT_Enable
                0x0000902c       0x2e ./system/src/kf32a_basic_can.o
                0x0000902c                CAN_Set_INT_Enable
 .text$SFR_Config
                0x0000905a       0x18 ./system/src/kf32a_basic_flash.o
 *fill*         0x00009072        0x2 
 .text$FLASH_Clear_NonVolatile_Memory_Unlock_Status
                0x00009074       0x3c ./system/src/kf32a_basic_flash.o
                0x00009074                FLASH_Clear_NonVolatile_Memory_Unlock_Status
 .text$FLASH_Clear_Flash_Unlock_Status
                0x000090b0       0x3c ./system/src/kf32a_basic_flash.o
                0x000090b0                FLASH_Clear_Flash_Unlock_Status
 .text$FLASH_Clear_Config_Unlock_Status
                0x000090ec       0x3c ./system/src/kf32a_basic_flash.o
                0x000090ec                FLASH_Clear_Config_Unlock_Status
 .text$SFR_Config
                0x00009128       0x18 ./system/src/kf32a_basic_gpio.o
 .text$GPIO_Configuration
                0x00009140      0x124 ./system/src/kf32a_basic_gpio.o
                0x00009140                GPIO_Configuration
 .text$GPIO_Struct_Init
                0x00009264       0x30 ./system/src/kf32a_basic_gpio.o
                0x00009264                GPIO_Struct_Init
 .text$GPIO_Pin_Lock_Config
                0x00009294       0x40 ./system/src/kf32a_basic_gpio.o
                0x00009294                GPIO_Pin_Lock_Config
 .text$GPIO_Write_Mode_Bits
                0x000092d4       0x5a ./system/src/kf32a_basic_gpio.o
                0x000092d4                GPIO_Write_Mode_Bits
 .text$GPIO_Read_Input_Data_Bit
                0x0000932e       0x28 ./system/src/kf32a_basic_gpio.o
                0x0000932e                GPIO_Read_Input_Data_Bit
 .text$GPIO_Read_Output_Data_Bit
                0x00009356       0x28 ./system/src/kf32a_basic_gpio.o
                0x00009356                GPIO_Read_Output_Data_Bit
 .text$GPIO_Set_Output_Data_Bits
                0x0000937e       0x30 ./system/src/kf32a_basic_gpio.o
                0x0000937e                GPIO_Set_Output_Data_Bits
 .text$GPIO_Toggle_Output_Data_Config
                0x000093ae       0x18 ./system/src/kf32a_basic_gpio.o
                0x000093ae                GPIO_Toggle_Output_Data_Config
 .text$GPIO_Pin_RMP_Config
                0x000093c6       0x66 ./system/src/kf32a_basic_gpio.o
                0x000093c6                GPIO_Pin_RMP_Config
 .text$SFR_Config
                0x0000942c       0x18 ./system/src/kf32a_basic_gptim.o
 .text$GPTIM_Cmd
                0x00009444       0x1e ./system/src/kf32a_basic_gptim.o
                0x00009444                GPTIM_Cmd
 *fill*         0x00009462        0x2 
 .text$GPTIM_Set_Counter
                0x00009464       0x34 ./system/src/kf32a_basic_gptim.o
                0x00009464                GPTIM_Set_Counter
 .text$GPTIM_Set_Period
                0x00009498       0x34 ./system/src/kf32a_basic_gptim.o
                0x00009498                GPTIM_Set_Period
 .text$GPTIM_Set_Prescaler
                0x000094cc       0x34 ./system/src/kf32a_basic_gptim.o
                0x000094cc                GPTIM_Set_Prescaler
 .text$GPTIM_Counter_Mode_Config
                0x00009500       0x2c ./system/src/kf32a_basic_gptim.o
                0x00009500                GPTIM_Counter_Mode_Config
 .text$GPTIM_Clock_Config
                0x0000952c       0x28 ./system/src/kf32a_basic_gptim.o
                0x0000952c                GPTIM_Clock_Config
 .text$GPTIM_Work_Mode_Config
                0x00009554       0x1e ./system/src/kf32a_basic_gptim.o
                0x00009554                GPTIM_Work_Mode_Config
 .text$GPTIM_Updata_Immediately_Config
                0x00009572       0x1e ./system/src/kf32a_basic_gptim.o
                0x00009572                GPTIM_Updata_Immediately_Config
 .text$GPTIM_Updata_Enable
                0x00009590       0x1e ./system/src/kf32a_basic_gptim.o
                0x00009590                GPTIM_Updata_Enable
 .text$GPTIM_Overflow_INT_Enable
                0x000095ae       0x1e ./system/src/kf32a_basic_gptim.o
                0x000095ae                GPTIM_Overflow_INT_Enable
 .text$GPTIM_Clear_Overflow_INT_Flag
                0x000095cc       0x26 ./system/src/kf32a_basic_gptim.o
                0x000095cc                GPTIM_Clear_Overflow_INT_Flag
 .text$GPTIM_Clear_Updata_INT_Flag
                0x000095f2       0x26 ./system/src/kf32a_basic_gptim.o
                0x000095f2                GPTIM_Clear_Updata_INT_Flag
 .text$CCP_PWM_Mode_Config
                0x00009618       0x40 ./system/src/kf32a_basic_gptim.o
                0x00009618                CCP_PWM_Mode_Config
 .text$CCP_Set_Compare_Result
                0x00009658       0x4c ./system/src/kf32a_basic_gptim.o
                0x00009658                CCP_Set_Compare_Result
 .text$CCP_Channel_Output_Control
                0x000096a4       0x40 ./system/src/kf32a_basic_gptim.o
                0x000096a4                CCP_Channel_Output_Control
 .text$SFR_Config
                0x000096e4       0x18 ./system/src/kf32a_basic_int.o
 .text$INT_All_Enable
                0x000096fc       0x1c ./system/src/kf32a_basic_int.o
                0x000096fc                INT_All_Enable
 .text$INT_Interrupt_Enable
                0x00009718       0xc0 ./system/src/kf32a_basic_int.o
                0x00009718                INT_Interrupt_Enable
 .text$INT_Clear_Interrupt_Flag
                0x000097d8       0x6c ./system/src/kf32a_basic_int.o
                0x000097d8                INT_Clear_Interrupt_Flag
 .text$INT_Interrupt_Priority_Config
                0x00009844       0xe4 ./system/src/kf32a_basic_int.o
                0x00009844                INT_Interrupt_Priority_Config
 .text$INT_External_Configuration
                0x00009928      0x124 ./system/src/kf32a_basic_int.o
                0x00009928                INT_External_Configuration
 .text$INT_External_Struct_Init
                0x00009a4c       0x26 ./system/src/kf32a_basic_int.o
                0x00009a4c                INT_External_Struct_Init
 *fill*         0x00009a72        0x2 
 .text$INT_Get_External_Flag
                0x00009a74       0x30 ./system/src/kf32a_basic_int.o
                0x00009a74                INT_Get_External_Flag
 .text$INT_External_Clear_Flag
                0x00009aa4       0x44 ./system/src/kf32a_basic_int.o
                0x00009aa4                INT_External_Clear_Flag
 .text$INT_External_Source_Enable
                0x00009ae8       0x8c ./system/src/kf32a_basic_int.o
                0x00009ae8                INT_External_Source_Enable
 .text$SFR_Config
                0x00009b74       0x18 ./system/src/kf32a_basic_osc.o
 .text$OSC_LFCK_Division_Config
                0x00009b8c       0x3c ./system/src/kf32a_basic_osc.o
                0x00009b8c                OSC_LFCK_Division_Config
 .text$OSC_HFCK_Division_Config
                0x00009bc8       0x3c ./system/src/kf32a_basic_osc.o
                0x00009bc8                OSC_HFCK_Division_Config
 .text$OSC_SCK_Division_Config
                0x00009c04       0x3c ./system/src/kf32a_basic_osc.o
                0x00009c04                OSC_SCK_Division_Config
 .text$OSC_PLL_Input_Source_Config
                0x00009c40       0x1c ./system/src/kf32a_basic_osc.o
                0x00009c40                OSC_PLL_Input_Source_Config
 .text$OSC_HFCK_Source_Config
                0x00009c5c       0x3c ./system/src/kf32a_basic_osc.o
                0x00009c5c                OSC_HFCK_Source_Config
 .text$OSC_HFCK_Enable
                0x00009c98       0x1c ./system/src/kf32a_basic_osc.o
                0x00009c98                OSC_HFCK_Enable
 .text$OSC_LFCK_Source_Config
                0x00009cb4       0x1c ./system/src/kf32a_basic_osc.o
                0x00009cb4                OSC_LFCK_Source_Config
 .text$OSC_LFCK_Enable
                0x00009cd0       0x1c ./system/src/kf32a_basic_osc.o
                0x00009cd0                OSC_LFCK_Enable
 .text$OSC_SCK_Source_Config
                0x00009cec       0x38 ./system/src/kf32a_basic_osc.o
                0x00009cec                OSC_SCK_Source_Config
 .text$OSC_Backup_Write_Read_Enable
                0x00009d24       0x1c ./system/src/kf32a_basic_osc.o
                0x00009d24                OSC_Backup_Write_Read_Enable
 .text$OSC_SCLK_Output_Enable
                0x00009d40       0x1c ./system/src/kf32a_basic_osc.o
                0x00009d40                OSC_SCLK_Output_Enable
 .text$OSC_SCLK_Output_Division_Config
                0x00009d5c       0x3c ./system/src/kf32a_basic_osc.o
                0x00009d5c                OSC_SCLK_Output_Division_Config
 .text$OSC_Clock_Failure_Check_Enable
                0x00009d98       0x1c ./system/src/kf32a_basic_osc.o
                0x00009d98                OSC_Clock_Failure_Check_Enable
 .text$OSC_PLL_Multiple_Value_Select
                0x00009db4       0xa8 ./system/src/kf32a_basic_osc.o
                0x00009db4                OSC_PLL_Multiple_Value_Select
 .text$OSC_PLL_RST
                0x00009e5c        0xc ./system/src/kf32a_basic_osc.o
                0x00009e5c                OSC_PLL_RST
 .text$OSC_PLL_Start_Delay_Config
                0x00009e68       0x3c ./system/src/kf32a_basic_osc.o
                0x00009e68                OSC_PLL_Start_Delay_Config
 .text$OSC_EXTHF_Start_Delay_Config
                0x00009ea4       0x3c ./system/src/kf32a_basic_osc.o
                0x00009ea4                OSC_EXTHF_Start_Delay_Config
 .text$OSC_PLL_Software_Enable
                0x00009ee0       0x1c ./system/src/kf32a_basic_osc.o
                0x00009ee0                OSC_PLL_Software_Enable
 .text$OSC_EXTHF_Software_Enable
                0x00009efc       0x1c ./system/src/kf32a_basic_osc.o
                0x00009efc                OSC_EXTHF_Software_Enable
 .text$OSC_EXTLF_Software_Enable
                0x00009f18       0x1c ./system/src/kf32a_basic_osc.o
                0x00009f18                OSC_EXTLF_Software_Enable
 .text$OSC_INTHF_Software_Enable
                0x00009f34       0x1c ./system/src/kf32a_basic_osc.o
                0x00009f34                OSC_INTHF_Software_Enable
 .text$OSC_INTLF_Software_Enable
                0x00009f50       0x1c ./system/src/kf32a_basic_osc.o
                0x00009f50                OSC_INTLF_Software_Enable
 .text$OSC_High_Speed_Enable
                0x00009f6c       0x1c ./system/src/kf32a_basic_osc.o
                0x00009f6c                OSC_High_Speed_Enable
 .text$OSC_Get_PLL_INT_Flag
                0x00009f88       0x18 ./system/src/kf32a_basic_osc.o
                0x00009f88                OSC_Get_PLL_INT_Flag
 .text$OSC_Get_INTHF_INT_Flag
                0x00009fa0       0x18 ./system/src/kf32a_basic_osc.o
                0x00009fa0                OSC_Get_INTHF_INT_Flag
 .text$PCLK_CTL0_Peripheral_Clock_Enable
                0x00009fb8       0x30 ./system/src/kf32a_basic_pclk.o
                0x00009fb8                PCLK_CTL0_Peripheral_Clock_Enable
 .text$PCLK_CTL1_Peripheral_Clock_Enable
                0x00009fe8       0x30 ./system/src/kf32a_basic_pclk.o
                0x00009fe8                PCLK_CTL1_Peripheral_Clock_Enable
 .text$PCLK_CTL2_Peripheral_Clock_Enable
                0x0000a018       0x30 ./system/src/kf32a_basic_pclk.o
                0x0000a018                PCLK_CTL2_Peripheral_Clock_Enable
 .text$PCLK_CTL3_Peripheral_Clock_Enable
                0x0000a048       0x30 ./system/src/kf32a_basic_pclk.o
                0x0000a048                PCLK_CTL3_Peripheral_Clock_Enable
 .text$PM_EXTLF_PIN_Selection_Config
                0x0000a078       0x1c ./system/src/kf32a_basic_pm.o
                0x0000a078                PM_EXTLF_PIN_Selection_Config
 .text$PM_EXTHF_PIN_Selection_Config
                0x0000a094       0x1c ./system/src/kf32a_basic_pm.o
                0x0000a094                PM_EXTHF_PIN_Selection_Config
 .text$RST_CTL1_Peripheral_Reset_Enable
                0x0000a0b0       0x30 ./system/src/kf32a_basic_rst.o
                0x0000a0b0                RST_CTL1_Peripheral_Reset_Enable
 .text$RST_CTL2_Peripheral_Reset_Enable
                0x0000a0e0       0x30 ./system/src/kf32a_basic_rst.o
                0x0000a0e0                RST_CTL2_Peripheral_Reset_Enable
 .text$RST_CTL3_Peripheral_Reset_Enable
                0x0000a110       0x30 ./system/src/kf32a_basic_rst.o
                0x0000a110                RST_CTL3_Peripheral_Reset_Enable
 .text$SFR_Config
                0x0000a140       0x18 ./system/src/kf32a_basic_sysctl.o
 .text$SYSCTL_System_Reset_Enable
                0x0000a158       0x44 ./system/src/kf32a_basic_sysctl.o
                0x0000a158                SYSCTL_System_Reset_Enable
 .text$SYSCTL_Vector_Offset_Config
                0x0000a19c       0x34 ./system/src/kf32a_basic_sysctl.o
                0x0000a19c                SYSCTL_Vector_Offset_Config
 .text$SFR_Config
                0x0000a1d0       0x18 ./system/src/kf32a_basic_usart.o
 .text$USART_Reset
                0x0000a1e8      0x16c ./system/src/kf32a_basic_usart.o
                0x0000a1e8                USART_Reset
 .text$USART_Configuration
                0x0000a354       0xa8 ./system/src/kf32a_basic_usart.o
                0x0000a354                USART_Configuration
 .text$USART_Struct_Init
                0x0000a3fc       0x64 ./system/src/kf32a_basic_usart.o
                0x0000a3fc                USART_Struct_Init
 .text$USART_Cmd
                0x0000a460       0x1a ./system/src/kf32a_basic_usart.o
                0x0000a460                USART_Cmd
 .text$USART_RESHD_Enable
                0x0000a47a       0x1a ./system/src/kf32a_basic_usart.o
                0x0000a47a                USART_RESHD_Enable
 .text$USART_SendData
                0x0000a494       0x12 ./system/src/kf32a_basic_usart.o
                0x0000a494                USART_SendData
 .text$USART_ReceiveData
                0x0000a4a6        0xe ./system/src/kf32a_basic_usart.o
                0x0000a4a6                USART_ReceiveData
 .text$USART_Passageway_Select_Config
                0x0000a4b4       0x1e ./system/src/kf32a_basic_usart.o
                0x0000a4b4                USART_Passageway_Select_Config
 .text$USART_RDR_INT_Enable
                0x0000a4d2       0x1e ./system/src/kf32a_basic_usart.o
                0x0000a4d2                USART_RDR_INT_Enable
 .text$USART_Get_Receive_BUFR_Ready_Flag
                0x0000a4f0       0x1e ./system/src/kf32a_basic_usart.o
                0x0000a4f0                USART_Get_Receive_BUFR_Ready_Flag
 .text$USART_Get_Transmitter_Empty_Flag
                0x0000a50e       0x1e ./system/src/kf32a_basic_usart.o
                0x0000a50e                USART_Get_Transmitter_Empty_Flag
 .text$USART_Clear_Transmit_BUFR_INT_Flag
                0x0000a52c       0x26 ./system/src/kf32a_basic_usart.o
                0x0000a52c                USART_Clear_Transmit_BUFR_INT_Flag
 *fill*         0x0000a552        0x2 
 .text$startup  0x0000a554       0x80 ./system/startup.o
                0x0000a554                startup
 .text$OSC_EXTHLF_Config
                0x0000a5d4      0x218 ./system/system_init.o
                0x0000a5d4                OSC_EXTHLF_Config
 .text$SystemInit
                0x0000a7ec       0x1c ./system/system_init.o
                0x0000a7ec                SystemInit
 .text$PortInit
                0x0000a808       0x6c ./source/MeterConfig.o
                0x0000a808                PortInit
 .text$power_task
                0x0000a874      0x2cc ./source/MeterConfig.o
                0x0000a874                power_task
 .text$InitSwitch
                0x0000ab40       0x58 ./source/MeterConfig.o
                0x0000ab40                InitSwitch
 .text$InitFMode
                0x0000ab98       0x1c ./source/MeterConfig.o
                0x0000ab98                InitFMode
 .text$InitRMode
                0x0000abb4       0x1c ./source/MeterConfig.o
                0x0000abb4                InitRMode
 .text$InitTMode
                0x0000abd0       0x1c ./source/MeterConfig.o
                0x0000abd0                InitTMode
 .text$initPWM_F
                0x0000abec       0x24 ./source/MeterConfig.o
                0x0000abec                initPWM_F
 .text$initPWM_R
                0x0000ac10       0x14 ./source/MeterConfig.o
                0x0000ac10                initPWM_R
 .text$initPWM_T
                0x0000ac24       0x34 ./source/MeterConfig.o
                0x0000ac24                initPWM_T
 .text$InitPWM  0x0000ac58       0x20 ./source/MeterConfig.o
                0x0000ac58                InitPWM
 .text$Send_PWM_Bcm
                0x0000ac78       0x54 ./source/MeterConfig.o
                0x0000ac78                Send_PWM_Bcm
 .text$RainConfig
                0x0000accc      0x1d8 ./source/MeterConfig.o
                0x0000accc                RainConfig
 .text$MeterAndBCMPortInit
                0x0000aea4       0x30 ./source/MeterConfig.o
                0x0000aea4                MeterAndBCMPortInit
 .text$CheckSum
                0x0000aed4       0x44 ./source/T123.o
 .text$AddData  0x0000af18       0x88 ./source/T123.o
                0x0000af18                AddData
 .text$GetData  0x0000afa0       0x4c ./source/T123.o
                0x0000afa0                GetData
 .text$fifo_set_free
                0x0000afec       0x10 ./source/T123.o
                0x0000afec                fifo_set_free
 .text$fifo_in  0x0000affc       0x68 ./source/T123.o
                0x0000affc                fifo_in
 .text$fifo_out
                0x0000b064       0x58 ./source/T123.o
                0x0000b064                fifo_out
 .text$fifo_init
                0x0000b0bc       0x2a ./source/T123.o
                0x0000b0bc                fifo_init
 *fill*         0x0000b0e6        0x2 
 .text$InitSendToT123
                0x0000b0e8       0x28 ./source/T123.o
                0x0000b0e8                InitSendToT123
 .text$SendToT123
                0x0000b110      0x124 ./source/T123.o
                0x0000b110                SendToT123
 .text$BootloaderLoop
                0x0000b234       0x6c ./source/bootloader.o
                0x0000b234                BootloaderLoop
 .text$GetIndexFromID
                0x0000b2a0       0x38 ./source/canreceive.o
                0x0000b2a0                GetIndexFromID
 .text$ID       0x0000b2d8       0x38 ./source/canreceive.o
                0x0000b2d8                ID
 .text$GetIDFromIndex
                0x0000b310       0x24 ./source/canreceive.o
                0x0000b310                GetIDFromIndex
 .text$GetID    0x0000b334       0x2c ./source/canreceive.o
                0x0000b334                GetID
 .text$GeCantData
                0x0000b360       0x3e ./source/canreceive.o
                0x0000b360                GeCantData
 *fill*         0x0000b39e        0x2 
 .text$ClearCanData
                0x0000b3a0      0x740 ./source/canreceive.o
                0x0000b3a0                ClearCanData
 .text$CopyData
                0x0000bae0       0x34 ./source/canreceive.o
                0x0000bae0                CopyData
 .text$ClearCanDataManage
                0x0000bb14       0xe0 ./source/canreceive.o
                0x0000bb14                ClearCanDataManage
 .text$ReceCan  0x0000bbf4     0x1218 ./source/canreceive.o
                0x0000bc08                ReceCan
 .text$Can0_Rx_Isr
                0x0000ce0c      0x110 ./source/canreceive.o
                0x0000ce0c                Can0_Rx_Isr
 .text$Can1_Rx_Isr
                0x0000cf1c       0xfc ./source/canreceive.o
                0x0000cf1c                Can1_Rx_Isr
 .text$Can2_Rx_Isr
                0x0000d018      0x100 ./source/canreceive.o
                0x0000d018                Can2_Rx_Isr
 .text$guzhangma_init
                0x0000d118       0xb0 ./source/display.o
                0x0000d118                guzhangma_init
 .text$JudgeMAInBuff
                0x0000d1c8       0x62 ./source/display.o
                0x0000d1c8                JudgeMAInBuff
 *fill*         0x0000d22a        0x2 
 .text$CAN_T123
                0x0000d22c       0xd0 ./source/display.o
                0x0000d22c                CAN_T123
 .text$SendPAGE_BAT01
                0x0000d2fc      0x198 ./source/display.o
                0x0000d2fc                SendPAGE_BAT01
 .text$SendPAGE_BAT02
                0x0000d494      0x134 ./source/display.o
                0x0000d494                SendPAGE_BAT02
 .text$display_surface3
                0x0000d5c8       0x48 ./source/display.o
                0x0000d5c8                display_surface3
 .text$SendPAGE_ECU01
                0x0000d610      0x234 ./source/display.o
                0x0000d610                SendPAGE_ECU01
 .text$display_surface5
                0x0000d844       0x3c ./source/display.o
                0x0000d844                display_surface5
 .text$SendFOG01
                0x0000d880      0x108 ./source/display.o
                0x0000d880                SendFOG01
 .text$SendFOG02
                0x0000d988      0x130 ./source/display.o
                0x0000d988                SendFOG02
 .text$display_surface2
                0x0000dab8       0xf4 ./source/display.o
 .text$SendPAGE_MOTOR01
                0x0000dbac      0x10c ./source/display.o
                0x0000dbac                SendPAGE_MOTOR01
 .text$SendPAGE_MOTOR02
                0x0000dcb8      0x128 ./source/display.o
                0x0000dcb8                SendPAGE_MOTOR02
 .text$SendPAGE_MOTOR03
                0x0000dde0      0x160 ./source/display.o
                0x0000dde0                SendPAGE_MOTOR03
 .text$display_surface4
                0x0000df40       0x94 ./source/display.o
                0x0000df40                display_surface4
 .text$SendERR01
                0x0000dfd4      0x208 ./source/display.o
                0x0000dfd4                SendERR01
 .text$SendERR02
                0x0000e1dc      0x338 ./source/display.o
                0x0000e1dc                SendERR02
 .text$display_surface1
                0x0000e514       0x50 ./source/display.o
 .text$AddAnkaiMenu
                0x0000e564       0x48 ./source/display.o
                0x0000e564                AddAnkaiMenu
 .text$ChangeToPage
                0x0000e5ac      0x178 ./source/displayhelper.o
                0x0000e5ac                ChangeToPage
 .text$MainMesg
                0x0000e724      0x1c0 ./source/displayhelper.o
 .text$MenuMesg
                0x0000e8e4      0x27c ./source/displayhelper.o
 .text$HelpMesg
                0x0000eb60       0x30 ./source/displayhelper.o
 .text$is_leap_year
                0x0000eb90       0x58 ./source/displayhelper.o
                0x0000eb90                is_leap_year
 .text$ChangeTime
                0x0000ebe8      0x388 ./source/displayhelper.o
                0x0000ebe8                ChangeTime
 .text$ChangeBackLight
                0x0000ef70      0x168 ./source/displayhelper.o
 .text$ChangeBuzz
                0x0000f0d8      0x160 ./source/displayhelper.o
 .text$ReInitSystemPage
                0x0000f238       0x64 ./source/displayhelper.o
                0x0000f238                ReInitSystemPage
 .text$SaveTime
                0x0000f29c       0x48 ./source/displayhelper.o
                0x0000f29c                SaveTime
 .text$SaveChangeNoEncrypt
                0x0000f2e4       0x5c ./source/displayhelper.o
                0x0000f2e4                SaveChangeNoEncrypt
 .text$NoEncryptSystemSet
                0x0000f340      0x150 ./source/displayhelper.o
                0x0000f340                NoEncryptSystemSet
 .text$u32tostr
                0x0000f490       0xf4 ./source/displayhelper.o
                0x0000f490                u32tostr
 .text$ChangeLicheng
                0x0000f584      0x1ec ./source/displayhelper.o
 .text$ChangeSubi
                0x0000f770      0x300 ./source/displayhelper.o
 .text$ChangePulse
                0x0000fa70      0x1fc ./source/displayhelper.o
 .text$ChangeCoef
                0x0000fc6c      0x2fc ./source/displayhelper.o
 .text$ChangeAir1Coef
                0x0000ff68      0x1fc ./source/displayhelper.o
 .text$ChangeAir2Coef
                0x00010164      0x1fc ./source/displayhelper.o
 .text$ChangeSpeedAlarm
                0x00010360      0x1fc ./source/displayhelper.o
 .text$ChangeAirAlarm
                0x0001055c      0x1fc ./source/displayhelper.o
 .text$ChangeOilAlarm
                0x00010758      0x1fc ./source/displayhelper.o
 .text$ChangeRanYou
                0x00010954      0x1fc ./source/displayhelper.o
 .text$ChangeVideoAv1
                0x00010b50      0x16c ./source/displayhelper.o
 .text$ChangeVideoAv2
                0x00010cbc      0x16c ./source/displayhelper.o
 .text$ChangeVideoAv3
                0x00010e28      0x16c ./source/displayhelper.o
 .text$ChangeVideoAv4
                0x00010f94      0x16c ./source/displayhelper.o
 .text$ChangeRain
                0x00011100      0x16c ./source/displayhelper.o
 .text$ChangeRainTime
                0x0001126c      0x2d8 ./source/displayhelper.o
 .text$CheckPassword
                0x00011544      0x1e0 ./source/displayhelper.o
 .text$ChangeFuelCoef
                0x00011724      0x1fc ./source/displayhelper.o
 .text$EncryptSystemSet
                0x00011920      0x6f4 ./source/displayhelper.o
                0x00011920                EncryptSystemSet
 .text$SaveChangeEncrypt
                0x00012014      0x2c0 ./source/displayhelper.o
                0x00012014                SaveChangeEncrypt
 .text$SaveODO  0x000122d4       0x2c ./source/displayhelper.o
                0x000122d4                SaveODO
 .text$MenuDIS_SELFTEST_MENU
                0x00012300       0x3c ./source/displayhelper.o
                0x00012300                MenuDIS_SELFTEST_MENU
 .text$SendPOWER01
                0x0001233c      0x148 ./source/displayhelper.o
                0x0001233c                SendPOWER01
 .text$SendPOWER02
                0x00012484      0x11c ./source/displayhelper.o
                0x00012484                SendPOWER02
 .text$SendPOWER03
                0x000125a0       0xd8 ./source/displayhelper.o
                0x000125a0                SendPOWER03
 .text$MenuDIS_POWER_MENU
                0x00012678       0xc0 ./source/displayhelper.o
 .text$NopMesg  0x00012738      0x1cc ./source/displayhelper.o
 .text$module_information
                0x00012904      0xf6c ./source/displayhelper.o
                0x0001290c                module_information
 .text$meter_information
                0x00013870      0x6a8 ./source/displayhelper.o
                0x00013870                meter_information
 .text$Meter_Add_Menu
                0x00013f18      0x23c ./source/displayhelper.o
                0x00013f18                Meter_Add_Menu
 .text$ArtMesg  0x00014154      0x14c ./source/displayhelper.o
                0x00014154                ArtMesg
 .text$vedio_menu_information
                0x000142a0       0x48 ./source/displayhelper.o
 .text$VedioMesg
                0x000142e8       0xac ./source/displayhelper.o
 .text$VedioCheck
                0x00014394       0xf4 ./source/displayhelper.o
                0x00014394                VedioCheck
 .text$GetWenziWarnCode
                0x00014488       0xa8 ./source/displayhelper.o
                0x00014488                GetWenziWarnCode
 .text$roll_alarm
                0x00014530      0x1ac ./source/displayhelper.o
                0x00014530                roll_alarm
 .text$roll_alarm_Task
                0x000146dc       0x44 ./source/displayhelper.o
                0x000146dc                roll_alarm_Task
 .text$MenuDIS_EP_MENU
                0x00014720       0x40 ./source/displayhelper.o
                0x00014720                MenuDIS_EP_MENU
 .text$MenuDIS_YOUMEN_MENU
                0x00014760       0x40 ./source/displayhelper.o
                0x00014760                MenuDIS_YOUMEN_MENU
 .text$MenuDIS_PARK_MENU
                0x000147a0       0x70 ./source/displayhelper.o
                0x000147a0                MenuDIS_PARK_MENU
 .text$display_task
                0x00014810      0x114 ./source/displayhelper.o
                0x00014810                display_task
 .text$InitDispStru
                0x00014924       0x2c ./source/displayhelper.o
                0x00014924                InitDispStru
 .text$AddMenu  0x00014950       0x40 ./source/displayhelper.o
                0x00014950                AddMenu
 .text$InitDisplayHelper
                0x00014990       0xb8 ./source/displayhelper.o
                0x00014990                InitDisplayHelper
 .text$HightLightSymbl
                0x00014a48       0x30 ./source/displayhelper.o
                0x00014a48                HightLightSymbl
 .text$Display_Symbol_Information
                0x00014a78       0xd8 ./source/displayhelper.o
 .text$display_time_bar_soc
                0x00014b50       0xec ./source/displayhelper.o
                0x00014b50                display_time_bar_soc
 .text$display_total_miles
                0x00014c3c      0x15c ./source/displayhelper.o
                0x00014c3c                display_total_miles
 .text$Main_Data
                0x00014d98       0x68 ./source/displayhelper.o
                0x00014d98                Main_Data
 .text$Main_Send
                0x00014e00       0x74 ./source/displayhelper.o
                0x00014e00                Main_Send
 .text$SendPAGE_MAIN04
                0x00014e74      0x118 ./source/displayhelper.o
                0x00014e74                SendPAGE_MAIN04
 .text$SendPAGE_MAIN05
                0x00014f8c       0xc0 ./source/displayhelper.o
                0x00014f8c                SendPAGE_MAIN05
 .text$SendPAGE_MAIN06
                0x0001504c      0x180 ./source/displayhelper.o
                0x00015054                SendPAGE_MAIN06
 .text$WriteDlong
                0x000151cc       0x4c ./source/eeprom.o
                0x000151cc                WriteDlong
 .text$ReadAdd  0x00015218       0x2c ./source/eeprom.o
                0x00015218                ReadAdd
 .text$GetMile  0x00015244       0x30 ./source/eeprom.o
                0x00015244                GetMile
 .text$SaveVehodo
                0x00015274       0xc4 ./source/eeprom.o
                0x00015274                SaveVehodo
 .text$EraseMile
                0x00015338       0x68 ./source/eeprom.o
                0x00015338                EraseMile
 .text$ReadVehodo
                0x000153a0      0x134 ./source/eeprom.o
                0x000153a0                ReadVehodo
 .text$ReadBlockPara
                0x000154d4       0x28 ./source/eeprom.o
                0x000154d4                ReadBlockPara
 .text$SaveDataToMeter
                0x000154fc      0x188 ./source/eeprom.o
                0x000154fc                SaveDataToMeter
 .text$DownPara
                0x00015684       0x60 ./source/eeprom.o
                0x00015684                DownPara
 .text$SaveMeterPara
                0x000156e4       0xa4 ./source/eeprom.o
                0x000156e4                SaveMeterPara
 .text$GiveParaToData
                0x00015788      0x164 ./source/eeprom.o
                0x00015788                GiveParaToData
 .text$CaluSum  0x000158ec       0x34 ./source/eeprom.o
                0x000158ec                CaluSum
 .text$ReadMeterPara
                0x00015920      0x180 ./source/eeprom.o
                0x00015920                ReadMeterPara
 .text$_CAN2_exception
                0x00015aa0      0x100 ./source/kf_it.o
                0x00015aa0                _CAN2_exception
 .text$_CAN0_exception
                0x00015ba0      0x11c ./source/kf_it.o
                0x00015ba0                _CAN0_exception
 .text$_CAN3_exception
                0x00015cbc      0x100 ./source/kf_it.o
                0x00015cbc                _CAN3_exception
 .text$_CAN1_exception
                0x00015dbc      0x100 ./source/kf_it.o
                0x00015dbc                _CAN1_exception
 .text$_USART2_exception
                0x00015ebc       0xdc ./source/kf_it.o
                0x00015ebc                _USART2_exception
 .text$_T0_exception
                0x00015f98       0x2c ./source/kf_it.o
                0x00015f98                _T0_exception
 .text$_T2_exception
                0x00015fc4       0xac ./source/kf_it.o
                0x00015fc4                _T2_exception
 .text$_EINT2_exception
                0x00016070       0x34 ./source/kf_it.o
                0x00016070                _EINT2_exception
 .text$McuSystemInit
                0x000160a4       0xb0 ./source/main.o
                0x000160a4                McuSystemInit
 .text$main     0x00016154      0x1d4 ./source/main.o
                0x00016154                main
 .text$HC165PortInit
                0x00016328       0x8c ./source/switch.o
                0x00016328                HC165PortInit
 .text$switch_task
                0x000163b4      0x6fc ./source/switch.o
                0x000163b4                switch_task
 .text$initdata
                0x00016ab0      0x180 ./source/system.o
                0x00016ab0                initdata
 .text$SendCopyData
                0x00016c30       0x34 ./source/system.o
                0x00016c30                SendCopyData
 .text$J1939_can2
                0x00016c64      0x1b4 ./source/system.o
                0x00016c64                J1939_can2
 .text$j1939_tx_50ms
                0x00016e18      0x86c ./source/system.o
                0x00016e18                j1939_tx_50ms
 .text$ADD_Can2
                0x00017684      0x3e8 ./source/system.o
                0x00017684                ADD_Can2
 .text$j1939_tx_100ms
                0x00017a6c      0x444 ./source/system.o
                0x00017a74                j1939_tx_100ms
 .text$Light    0x00017eb0      0x1b8 ./source/system.o
                0x00017ecc                Light
 .text$data_change
                0x00018068       0x90 ./source/system.o
                0x00018068                data_change
 .text$data_change_life
                0x000180f8       0x60 ./source/system.o
                0x000180f8                data_change_life
 .text$Rool_Alarm_Handle
                0x00018158     0x24a8 ./source/system.o
 .text$GetVbatTemp
                0x0001a600       0xa4 ./source/system.o
                0x0001a600                GetVbatTemp
 .text$Acquisition_Bar
                0x0001a6a4      0x1c4 ./source/system.o
                0x0001a6b4                Acquisition_Bar
 .text$Acquisition_Task
                0x0001a868       0x20 ./source/system.o
                0x0001a868                Acquisition_Task
 .text$Send_Msg_Bcm
                0x0001a888       0x90 ./source/system.o
                0x0001a888                Send_Msg_Bcm
 .text$SendCCVS
                0x0001a918       0x90 ./source/system.o
                0x0001a918                SendCCVS
 .text$Sendspeed
                0x0001a9a8       0x90 ./source/system.o
                0x0001a9a8                Sendspeed
 .text$BCMConfig
                0x0001aa38      0xe90 ./source/system.o
                0x0001aa38                BCMConfig
 .text$LedHand  0x0001b8c8      0x4fc ./source/system.o
                0x0001b8c8                LedHand
 .text$ScreenSymbol
                0x0001bdc4      0xa9c ./source/system.o
                0x0001bdc4                ScreenSymbol
 .text$JudgeEngeed1SThan10
                0x0001c860       0x4c ./source/system.o
                0x0001c860                JudgeEngeed1SThan10
 .text$SystemLogic
                0x0001c8ac      0x124 ./source/system.o
                0x0001c8ac                SystemLogic
 .text$BuzzLogic
                0x0001c9d0      0x238 ./source/system.o
                0x0001c9d0                BuzzLogic
 .text$AdcPortInit
                0x0001cc08       0x4c ./driver/Adc.o
                0x0001cc08                AdcPortInit
 .text$Delay    0x0001cc54       0x1e ./driver/Adc.o
                0x0001cc54                Delay
 *fill*         0x0001cc72        0x2 
 .text$Init_adc
                0x0001cc74       0x74 ./driver/Adc.o
                0x0001cc74                Init_adc
 .text$AdcInit  0x0001cce8       0x34 ./driver/Adc.o
                0x0001cce8                AdcInit
 .text$ReadAdcResult
                0x0001cd1c     0x1018 ./driver/Adc.o
                0x0001cd34                ReadAdcResult
 .text$xGPIO_Bcan
                0x0001dd34       0x64 ./driver/Bcan.o
 .text$xINT_BCAN
                0x0001dd98       0x40 ./driver/Bcan.o
 .text$BcanInint
                0x0001ddd8       0x2c ./driver/Bcan.o
                0x0001ddd8                BcanInint
 .text$Bcan_fifo_init
                0x0001de04       0x2a ./driver/Bcan.o
                0x0001de04                Bcan_fifo_init
 *fill*         0x0001de2e        0x2 
 .text$InitBCanSend
                0x0001de30       0x28 ./driver/Bcan.o
                0x0001de30                InitBCanSend
 .text$BCan_Standard_Tx_Bytes
                0x0001de58       0xe0 ./driver/Bcan.o
                0x0001de58                BCan_Standard_Tx_Bytes
 .text$BCan_Expend_Tx_Bytes
                0x0001df38       0xdc ./driver/Bcan.o
                0x0001df38                BCan_Expend_Tx_Bytes
 .text$BCanSendFifo
                0x0001e014       0xb0 ./driver/Bcan.o
                0x0001e014                BCanSendFifo
 .text$BCanSendTo
                0x0001e0c4       0xc0 ./driver/Bcan.o
                0x0001e0c4                BCanSendTo
 .text$BGetIndexFromID
                0x0001e184       0x38 ./driver/Bcan.o
                0x0001e184                BGetIndexFromID
 .text$Can3_Rx_Isr
                0x0001e1bc      0x544 ./driver/Bcan.o
                0x0001e1bc                Can3_Rx_Isr
 .text$xGPIO_Dcan
                0x0001e700       0x68 ./driver/Dcan.o
 .text$xINT_DCAN
                0x0001e768       0x40 ./driver/Dcan.o
 .text$DcanInint
                0x0001e7a8       0x2c ./driver/Dcan.o
                0x0001e7a8                DcanInint
 .text$DCan_Expend_Tx_Bytes
                0x0001e7d4       0xc8 ./driver/Dcan.o
                0x0001e7d4                DCan_Expend_Tx_Bytes
 .text$CCPx_PWM_GPIO_Init
                0x0001e89c      0x13c ./driver/Emios.o
                0x0001e89c                CCPx_PWM_GPIO_Init
 .text$CCPx_PWM_PPX_Duty
                0x0001e9d8       0xd0 ./driver/Emios.o
                0x0001e9d8                CCPx_PWM_PPX_Duty
 .text$CCPx_PWM_PPX_Duty_C3
                0x0001eaa8       0xd4 ./driver/Emios.o
                0x0001eaa8                CCPx_PWM_PPX_Duty_C3
 .text$PwmInit  0x0001eb7c       0x7c ./driver/Emios.o
                0x0001eb7c                PwmInit
 .text$SetBackGround
                0x0001ebf8       0x70 ./driver/Emios.o
                0x0001ebf8                SetBackGround
 .text$BACKGROUND_OFF
                0x0001ec68       0x28 ./driver/Emios.o
                0x0001ec68                BACKGROUND_OFF
 .text$SetFreqOut
                0x0001ec90       0x5c ./driver/Emios.o
                0x0001ec90                SetFreqOut
 .text$C3_Sign_OUT
                0x0001ecec       0x50 ./driver/Emios.o
                0x0001ecec                C3_Sign_OUT
 .text$EXIT_INTx_Config
                0x0001ed3c       0xc0 ./driver/Emios.o
                0x0001ed3c                EXIT_INTx_Config
 .text$CaptureModeInit
                0x0001edfc       0x30 ./driver/Emios.o
                0x0001edfc                CaptureModeInit
 .text$GetCaptureHZ
                0x0001ee2c       0x1c ./driver/Emios.o
                0x0001ee2c                GetCaptureHZ
 .text$xGPIO_Pcan
                0x0001ee48       0x64 ./driver/Pcan.o
 .text$xINT_PCAN
                0x0001eeac       0x40 ./driver/Pcan.o
 .text$PcanInint
                0x0001eeec       0x2c ./driver/Pcan.o
                0x0001eeec                PcanInint
 .text$Pcan_fifo_init
                0x0001ef18       0x2a ./driver/Pcan.o
                0x0001ef18                Pcan_fifo_init
 *fill*         0x0001ef42        0x2 
 .text$InitPCanSend
                0x0001ef44       0x28 ./driver/Pcan.o
                0x0001ef44                InitPCanSend
 .text$PCan_Expend_Tx_Bytes
                0x0001ef6c       0xc8 ./driver/Pcan.o
                0x0001ef6c                PCan_Expend_Tx_Bytes
 .text$PCanSendFifo
                0x0001f034       0xb0 ./driver/Pcan.o
                0x0001f034                PCanSendFifo
 .text$PCanSendTo
                0x0001f0e4       0xc0 ./driver/Pcan.o
                0x0001f0e4                PCanSendTo
 .text$RtcInit  0x0001f1a4       0x10 ./driver/Rtc.o
                0x0001f1a4                RtcInit
 .text$get_date
                0x0001f1b4      0x174 ./driver/Rtc.o
                0x0001f1b4                get_date
 .text$set_date
                0x0001f328      0x14c ./driver/Rtc.o
                0x0001f328                set_date
 .text$config_rtc
                0x0001f474       0x88 ./driver/Rtc.o
                0x0001f474                config_rtc
 .text$USART_Send
                0x0001f4fc       0x4c ./driver/Usart.o
                0x0001f4fc                USART_Send
 .text$USART_Async_config
                0x0001f548       0x80 ./driver/Usart.o
                0x0001f548                USART_Async_config
 .text$USART_ReceiveInt_config
                0x0001f5c8       0x30 ./driver/Usart.o
                0x0001f5c8                USART_ReceiveInt_config
 .text$GPIO_USART2
                0x0001f5f8       0xa4 ./driver/Usart.o
                0x0001f5f8                GPIO_USART2
 .text$UartInitToT123
                0x0001f69c       0x38 ./driver/Usart.o
                0x0001f69c                UartInitToT123
 .text$TransmitDataTo123
                0x0001f6d4       0x20 ./driver/Usart.o
                0x0001f6d4                TransmitDataTo123
 .text$xGPIO_CAN
                0x0001f6f4       0x64 ./driver/can.o
                0x0001f6f4                xGPIO_CAN
 .text$xInit_CAN
                0x0001f758       0x74 ./driver/can.o
                0x0001f758                xInit_CAN
 .text$xINT_CAN
                0x0001f7cc       0x40 ./driver/can.o
                0x0001f7cc                xINT_CAN
 .text$CAN_Transmit_DATA
                0x0001f80c       0xd0 ./driver/can.o
                0x0001f80c                CAN_Transmit_DATA
 .text$CanInit  0x0001f8dc       0x2c ./driver/can.o
                0x0001f8dc                CanInit
 .text$can1_fifo_init
                0x0001f908       0x2a ./driver/can.o
                0x0001f908                can1_fifo_init
 *fill*         0x0001f932        0x2 
 .text$InitCan1Send
                0x0001f934       0x28 ./driver/can.o
                0x0001f934                InitCan1Send
 .text$Can_Expend_Tx_Bytes
                0x0001f95c       0xc8 ./driver/can.o
                0x0001f95c                Can_Expend_Tx_Bytes
 .text$CanSendFifo
                0x0001fa24       0xb0 ./driver/can.o
                0x0001fa24                CanSendFifo
 .text$Can1SendFifo
                0x0001fad4       0xc0 ./driver/can.o
                0x0001fad4                Can1SendFifo
 .text$FLASH_READCODE_fun
                0x0001fb94       0x44 ./driver/flash.o
                0x0001fb94                FLASH_READCODE_fun
 .text$FLASH_WriteWord
                0x0001fbd8       0x5c ./driver/flash.o
                0x0001fbd8                FLASH_WriteWord
 .text$FLASH_ReadWord
                0x0001fc34       0x28 ./driver/flash.o
                0x0001fc34                FLASH_ReadWord
 .text$GPIOInit_Input_Config
                0x0001fc5c       0x3c ./driver/gpio.o
                0x0001fc5c                GPIOInit_Input_Config
 .text$GPIOInit_Output_Config
                0x0001fc98       0x50 ./driver/gpio.o
                0x0001fc98                GPIOInit_Output_Config
 .text$delay_   0x0001fce8       0x1e ./driver/iic.o
                0x0001fce8                delay_
 *fill*         0x0001fd06        0x2 
 .text$iic_init
                0x0001fd08       0x40 ./driver/iic.o
                0x0001fd08                iic_init
 .text$start    0x0001fd48       0x4c ./driver/iic.o
                0x0001fd48                start
 .text$stop     0x0001fd94       0x4c ./driver/iic.o
                0x0001fd94                stop
 .text$respons  0x0001fde0       0x7c ./driver/iic.o
                0x0001fde0                respons
 .text$write_byte
                0x0001fe5c       0xa4 ./driver/iic.o
                0x0001fe5c                write_byte
 .text$read_byte
                0x0001ff00       0xc0 ./driver/iic.o
                0x0001ff00                read_byte
 .text$write_add
                0x0001ffc0       0x4c ./driver/iic.o
                0x0001ffc0                write_add
 .text$read_add
                0x0002000c       0x5c ./driver/iic.o
                0x0002000c                read_add
 .text$KeyIoInit
                0x00020068       0x4c ./driver/key.o
                0x00020068                KeyIoInit
 .text$fst_bit_num_get
                0x000200b4       0x34 ./driver/key.o
                0x000200b4                fst_bit_num_get
 .text$read_key_port
                0x000200e8       0xb8 ./driver/key.o
                0x000200e8                read_key_port
 .text$get_key  0x000201a0      0x100 ./driver/key.o
                0x000201a0                get_key
 .text$key_task
                0x000202a0       0x2c ./driver/key.o
                0x000202a0                key_task
 .text$message_send
                0x000202cc       0x44 ./driver/keyfif.o
                0x000202cc                message_send
 .text$message_get
                0x00020310       0x68 ./driver/keyfif.o
                0x00020310                message_get
 .text$LedPortInit
                0x00020378       0x48 ./driver/led.o
                0x00020378                LedPortInit
 .text$led_out  0x000203c0       0xe0 ./driver/led.o
                0x000203c0                led_out
 .text$MotorPortInit
                0x000204a0       0xd0 ./driver/motor.o
                0x000204a0                MotorPortInit
 .text$InitMotor
                0x00020570      0x220 ./driver/motor.o
                0x00020570                InitMotor
 .text$TurnSpeed
                0x00020790       0xcc ./driver/motor.o
 .text$MotorTaskEngspeed
                0x0002085c       0xc4 ./driver/motor.o
                0x0002085c                MotorTaskEngspeed
 .text$MotorTaskVehspeed
                0x00020920       0xc4 ./driver/motor.o
                0x00020920                MotorTaskVehspeed
 .text$MotorTaskVehbar1
                0x000209e4       0xc0 ./driver/motor.o
                0x000209e4                MotorTaskVehbar1
 .text$MotorTaskVehbar2
                0x00020aa4       0xc0 ./driver/motor.o
                0x00020aa4                MotorTaskVehbar2
 .text$MotorTaskVehSOC
                0x00020b64       0xc4 ./driver/motor.o
                0x00020b64                MotorTaskVehSOC
 .text$MotorTaskVehVbat
                0x00020c28       0xe4 ./driver/motor.o
                0x00020c28                MotorTaskVehVbat
 .text$reset_motor
                0x00020d0c      0x15c ./driver/motor.o
                0x00020d0c                reset_motor
 .text$motor_task
                0x00020e68      0x2ac ./driver/motor.o
                0x00020e68                motor_task
 .text$Motor_Isr
                0x00021114      0x250 ./driver/motor.o
                0x00021114                Motor_Isr
 .text$OutPowerInit
                0x00021364       0xac ./driver/output.o
                0x00021364                OutPowerInit
 .text$OpenPower
                0x00021410       0x88 ./driver/output.o
                0x00021410                OpenPower
 .text$set_output
                0x00021498       0x80 ./driver/output.o
                0x00021498                set_output
 .text$output_protection
                0x00021518      0x13c ./driver/output.o
                0x00021518                output_protection
 .text$feedback_diag
                0x00021654      0x1d4 ./driver/output.o
                0x00021654                feedback_diag
 .text$sch_add_task
                0x00021828       0x84 ./driver/sch.o
                0x00021828                sch_add_task
 .text$sch_delete_task
                0x000218ac       0x60 ./driver/sch.o
                0x000218ac                sch_delete_task
 .text$sch_dispatch_tasks
                0x0002190c       0x88 ./driver/sch.o
                0x0002190c                sch_dispatch_tasks
 .text$sch_update
                0x00021994       0xc0 ./driver/sch.o
                0x00021994                sch_update
 .text$sch_init
                0x00021a54       0x28 ./driver/sch.o
                0x00021a54                sch_init
 .text$GENERAL_TIMER_Tx_Config
                0x00021a7c       0xac ./driver/timer.o
                0x00021a7c                GENERAL_TIMER_Tx_Config
 .text$TastTimerInit
                0x00021b28       0x2c ./driver/timer.o
                0x00021b28                TastTimerInit
 .text$MotorTimerInit
                0x00021b54       0x2c ./driver/timer.o
                0x00021b54                MotorTimerInit
 .text$TimerInit
                0x00021b80       0x18 ./driver/timer.o
                0x00021b80                TimerInit
 .text$__addsf3
                0x00021b98      0x330 C:/Program Files (x86)/ChipON IDE/KungFu32/ChiponCC32/ccr1_issue_v0/lib/libcrtv1.a(addsf3.o)
                0x00021b98                __addsf3
 .text$__divdf3
                0x00021ec8      0x5c4 C:/Program Files (x86)/ChipON IDE/KungFu32/ChiponCC32/ccr1_issue_v0/lib/libcrtv1.a(divdf3.o)
                0x00021ec8                __divdf3
 .text$__divsf3
                0x0002248c      0x204 C:/Program Files (x86)/ChipON IDE/KungFu32/ChiponCC32/ccr1_issue_v0/lib/libcrtv1.a(divsf3.o)
                0x0002248c                __divsf3
 .text$__fixunsdfsi
                0x00022690       0x6c C:/Program Files (x86)/ChipON IDE/KungFu32/ChiponCC32/ccr1_issue_v0/lib/libcrtv1.a(fixunsdfsi.o)
                0x00022690                __fixunsdfsi
 .text$__fixunssfsi
                0x000226fc       0x44 C:/Program Files (x86)/ChipON IDE/KungFu32/ChiponCC32/ccr1_issue_v0/lib/libcrtv1.a(fixunssfsi.o)
                0x000226fc                __fixunssfsi
 .text$__floatsidf
                0x00022740       0x9c C:/Program Files (x86)/ChipON IDE/KungFu32/ChiponCC32/ccr1_issue_v0/lib/libcrtv1.a(floatsidf.o)
                0x00022740                __floatsidf
 .text$__floatsisf
                0x000227dc       0xbc C:/Program Files (x86)/ChipON IDE/KungFu32/ChiponCC32/ccr1_issue_v0/lib/libcrtv1.a(floatsisf.o)
                0x000227dc                __floatsisf
 .text$__floatunsisf
                0x00022898       0xa8 C:/Program Files (x86)/ChipON IDE/KungFu32/ChiponCC32/ccr1_issue_v0/lib/libcrtv1.a(floatunsisf.o)
                0x00022898                __floatunsisf
 .text$__gedf2  0x00022940       0xf4 C:/Program Files (x86)/ChipON IDE/KungFu32/ChiponCC32/ccr1_issue_v0/lib/libcrtv1.a(gedf2.o)
                0x00022940                __gtdf2
                0x00022940                __gedf2
 .text$__gesf2  0x00022a34       0xbc C:/Program Files (x86)/ChipON IDE/KungFu32/ChiponCC32/ccr1_issue_v0/lib/libcrtv1.a(gesf2.o)
                0x00022a34                __gtsf2
                0x00022a34                __gesf2
 .text$__ledf2  0x00022af0       0xf4 C:/Program Files (x86)/ChipON IDE/KungFu32/ChiponCC32/ccr1_issue_v0/lib/libcrtv1.a(ledf2.o)
                0x00022af0                __ltdf2
                0x00022af0                __ledf2
 .text$__muldf3
                0x00022be4      0x4f8 C:/Program Files (x86)/ChipON IDE/KungFu32/ChiponCC32/ccr1_issue_v0/lib/libcrtv1.a(muldf3.o)
                0x00022be4                __muldf3
 .text$__mulsf3
                0x000230dc      0x24c C:/Program Files (x86)/ChipON IDE/KungFu32/ChiponCC32/ccr1_issue_v0/lib/libcrtv1.a(mulsf3.o)
                0x000230dc                __mulsf3
 .text$__subsf3
                0x00023328      0x34c C:/Program Files (x86)/ChipON IDE/KungFu32/ChiponCC32/ccr1_issue_v0/lib/libcrtv1.a(subsf3.o)
                0x00023328                __subsf3
 .text$__truncdfsf2
                0x00023674      0x130 C:/Program Files (x86)/ChipON IDE/KungFu32/ChiponCC32/ccr1_issue_v0/lib/libcrtv1.a(truncdfsf2.o)
                0x00023674                __truncdfsf2
 .text$__clzsi2
                0x000237a4       0x10 C:/Program Files (x86)/ChipON IDE/KungFu32/ChiponCC32/ccr1_issue_v0/lib/libcrtv1.a(__clzsi2.o)
                0x000237a4                __clzsi2
 *(.ctors*)
 *(.dtors*)
                0x000237b4                __init_class_start = ((. + 0x3) & 0xfffffffc)
 *(.init_array*)
                0x000237b4                __init_class_end = .
 *(.init*)
 *(.fini*)
 *(.rdata*)
 .rdata$CanIdTable
                0x000237b4       0xb4 ./source/canreceive.o
                0x000237b4                CanIdTable
 .rdata$days_in_mo
                0x00023868        0xd ./source/displayhelper.o
                0x00023868                days_in_mo
 *fill*         0x00023875        0x1 
 .rdata$password
                0x00023876        0x2 ./source/displayhelper.o
                0x00023876                password
 .rdata$kehu_password
                0x00023878        0x2 ./source/displayhelper.o
                0x00023878                kehu_password
 *fill*         0x0002387a        0x2 
 .rdata$TV      0x0002387c        0x5 ./source/displayhelper.o
                0x0002387c                TV
 *fill*         0x00023881        0x3 
 .rdata$ConstInit
                0x00023884       0x20 ./source/eeprom.o
                0x00023884                ConstInit
 .rdata$Frist_Temp_V
                0x000238a4       0xca ./source/system.o
                0x000238a4                Frist_Temp_V
 *fill*         0x0002396e        0x2 
 .rdata$BCanIdTable
                0x00023970       0x48 ./driver/Bcan.o
                0x00023970                BCanIdTable
 .rdata$KeyEvent
                0x000239b8       0x54 ./driver/key.o
 .rdata$delay_time
                0x00023a0c       0x1a ./driver/motor.o
                0x00023a0c                delay_time
 *(.rodata*)
                0x00023a28                . = ((. + 0x3) & 0xfffffffc)
 *fill*         0x00023a26        0x2 
 *(.usertext*)
 *(.userrdata*)
 *(.userrodata*)
                0x00023a28                . = ((. + 0x3) & 0xfffffffc)
                0x00023a28                __text_end__ = .

.data           0x10000000    0x20000
                0x10000000                . = ((. + 0x3) & 0xfffffffc)
                0x10000000                __data_start__ = .
 *(.ramvector*)
                0x10000000                __lpdata_start__ = ((. + 0x3) & 0xfffffffc)
 *(.lpdata*)
                0x10000000                __lpdata_end__ = ((. + 0x3) & 0xfffffffc)
                0x10000000                . = ((. + 0x3) & 0xfffffffc)
 *(.indata*)
 .indata$CHECK_RESTRICTION_RAM
                0x10000000        0xe ./system/src/kf32a_basic_flash.o
                0x10000000                CHECK_RESTRICTION_RAM
 .indata$SFR_Config_RAM
                0x1000000e       0x18 ./system/src/kf32a_basic_flash.o
 *fill*         0x10000026        0x2 
 .indata$FLASH_Clear_NonVolatile_Memory_Unlock_Status_RAM
                0x10000028       0x3c ./system/src/kf32a_basic_flash.o
                0x10000028                FLASH_Clear_NonVolatile_Memory_Unlock_Status_RAM
 .indata$FLASH_Unlock_ISP_RAM
                0x10000064       0x1c ./system/src/kf32a_basic_flash.o
                0x10000064                FLASH_Unlock_ISP_RAM
 .indata$FLASH_Clear_Flash_Unlock_Status_RAM
                0x10000080       0x3c ./system/src/kf32a_basic_flash.o
                0x10000080                FLASH_Clear_Flash_Unlock_Status_RAM
 .indata$FLASH_Unlock_Code_RAM
                0x100000bc       0x1c ./system/src/kf32a_basic_flash.o
                0x100000bc                FLASH_Unlock_Code_RAM
 .indata$FLASH_Clear_Config_Unlock_Status_RAM
                0x100000d8       0x3c ./system/src/kf32a_basic_flash.o
                0x100000d8                FLASH_Clear_Config_Unlock_Status_RAM
 .indata$FLASH_Unlock_User_Config_RAM
                0x10000114       0x1c ./system/src/kf32a_basic_flash.o
                0x10000114                FLASH_Unlock_User_Config_RAM
 .indata$FLASH_Data_Write_Enable_RAM
                0x10000130       0x3c ./system/src/kf32a_basic_flash.o
                0x10000130                FLASH_Data_Write_Enable_RAM
 .indata$FLASH_Zone_Config_RAM
                0x1000016c       0x3c ./system/src/kf32a_basic_flash.o
                0x1000016c                FLASH_Zone_Config_RAM
 .indata$FLASH_Executive_Cmd_RAM
                0x100001a8       0x3c ./system/src/kf32a_basic_flash.o
                0x100001a8                FLASH_Executive_Cmd_RAM
 .indata$FLASH_Get_Program_Status_RAM
                0x100001e4       0x1c ./system/src/kf32a_basic_flash.o
                0x100001e4                FLASH_Get_Program_Status_RAM
 .indata$FLASH_Get_Wipe_Status_RAM
                0x10000200       0x1c ./system/src/kf32a_basic_flash.o
                0x10000200                FLASH_Get_Wipe_Status_RAM
 .indata$FLASH_Wipe_Configuration_RAM
                0x1000021c       0xe4 ./system/src/kf32a_basic_flash.o
                0x1000021c                FLASH_Wipe_Configuration_RAM
 .indata$FLASH_Program_Configuration_RAM
                0x10000300      0x1c0 ./system/src/kf32a_basic_flash.o
                0x10000300                FLASH_Program_Configuration_RAM
 .indata$Read_Flash_or_CFR_RAM
                0x100004c0       0x94 ./system/src/kf32a_basic_flash.o
                0x100004c0                Read_Flash_or_CFR_RAM
 *(.inrdata*)
 *(.inrodata*)
                0x10000554                . = ((. + 0x3) & 0xfffffffc)
 *(.data*)
 .data$init$SendToT123Loop
                0x10000554        0x1 ./source/T123.o
                0x10000554                SendToT123Loop
 .data$init$SendToT123Delay
                0x10000555        0x1 ./source/T123.o
                0x10000555                SendToT123Delay
 .data$static$arr.6301
                0x10000556        0x1 ./source/T123.o
 *fill*         0x10000557        0x1 
 .data$init$blstatus
                0x10000558        0x4 ./source/bootloader.o
                0x10000558                blstatus
 .data$static$Pcandata
                0x1000055c        0x8 ./source/canreceive.o
 .data$static$vcu_time.6549
                0x10000564        0x1 ./source/display.o
 .data$static$vcu_index.6550
                0x10000565        0x1 ./source/display.o
 .data$static$bms_index.6553
                0x10000566        0x1 ./source/display.o
 .data$static$motor_index.6556
                0x10000567        0x1 ./source/display.o
 .data$static$daqi_index.6559
                0x10000568        0x1 ./source/display.o
 .data$static$turn_index.6562
                0x10000569        0x1 ./source/display.o
 .data$static$xiaoqong_index.6565
                0x1000056a        0x1 ./source/display.o
 .data$static$diya_index.6568
                0x1000056b        0x1 ./source/display.o
 .data$static$data1save.6571
                0x1000056c        0xb ./source/display.o
 *fill*         0x10000577        0x1 
 .data$static$data1save.6537
                0x10000578        0xb ./source/display.o
 .data$static$fan.6531
                0x10000583        0x1 ./source/display.o
 .data$static$data1save.6518
                0x10000584        0xb ./source/display.o
 *fill*         0x1000058f        0x1 
 .data$static$data1save.6505
                0x10000590        0xb ./source/display.o
 *fill*         0x1000059b        0x1 
 .data$static$data1save.6492
                0x1000059c        0xb ./source/display.o
 .data$static$changescreenflag.6477
                0x100005a7        0x1 ./source/display.o
 .data$static$flag.6476
                0x100005a8        0x1 ./source/display.o
 *fill*         0x100005a9        0x3 
 .data$static$data1save.6463
                0x100005ac        0xb ./source/display.o
 *fill*         0x100005b7        0x1 
 .data$static$data1save.6450
                0x100005b8        0xb ./source/display.o
 *fill*         0x100005c3        0x1 
 .data$static$data1save.6433
                0x100005c4        0xb ./source/display.o
 *fill*         0x100005cf        0x1 
 .data$static$data1save.6413
                0x100005d0        0xb ./source/display.o
 *fill*         0x100005db        0x1 
 .data$static$data1save.6400
                0x100005dc        0xb ./source/display.o
 *fill*         0x100005e7        0x1 
 .data$static$VedioManual
                0x100005e8        0x4 ./source/displayhelper.o
 .data$init$initflag
                0x100005ec        0x1 ./source/displayhelper.o
                0x100005ec                initflag
 .data$init$dis_mod
                0x100005ed        0x1 ./source/displayhelper.o
                0x100005ed                dis_mod
 .data$init$SetOption
                0x100005ee        0x1 ./source/displayhelper.o
                0x100005ee                SetOption
 .data$init$ClearBufferDisable
                0x100005ef        0x1 ./source/displayhelper.o
                0x100005ef                ClearBufferDisable
 .data$init$kehu_mi
                0x100005f0        0x1 ./source/displayhelper.o
                0x100005f0                kehu_mi
 *fill*         0x100005f1        0x3 
 .data$init$MenuNum
                0x100005f4        0x4 ./source/displayhelper.o
                0x100005f4                MenuNum
 .data$init$symbol_one
                0x100005f8        0x1 ./source/displayhelper.o
                0x100005f8                symbol_one
 *fill*         0x100005f9        0x3 
 .data$static$data1save.7281
                0x100005fc        0xb ./source/displayhelper.o
 *fill*         0x10000607        0x1 
 .data$static$data1save.7268
                0x10000608        0xb ./source/displayhelper.o
 *fill*         0x10000613        0x1 
 .data$static$data1save.7255
                0x10000614        0xb ./source/displayhelper.o
 .data$static$lop.7243
                0x1000061f        0x1 ./source/displayhelper.o
 .data$static$loop.7235
                0x10000620        0x1 ./source/displayhelper.o
 *fill*         0x10000621        0x3 
 .data$static$data1save.7224
                0x10000624        0xb ./source/displayhelper.o
 *fill*         0x1000062f        0x1 
 .data$static$data1save.7212
                0x10000630        0xb ./source/displayhelper.o
 *fill*         0x1000063b        0x1 
 .data$static$data1save.7196
                0x1000063c        0xb ./source/displayhelper.o
 *fill*         0x10000647        0x1 
 .data$static$x.7114
                0x10000648        0x2 ./source/displayhelper.o
 .data$static$dis_mod_bak.7097
                0x1000064a        0x1 ./source/displayhelper.o
 .data$static$vedio_menu.7092
                0x1000064b        0x1 ./source/displayhelper.o
 .data$static$flag.7062
                0x1000064c        0x1 ./source/displayhelper.o
 *fill*         0x1000064d        0x3 
 .data$static$data1save.7050
                0x10000650        0xb ./source/displayhelper.o
 .data$static$meterx.7034
                0x1000065b        0x1 ./source/displayhelper.o
 .data$static$meter_time.7033
                0x1000065c        0x1 ./source/displayhelper.o
 .data$static$front_module_time.6993
                0x1000065d        0x1 ./source/displayhelper.o
 .data$static$rear_module_time.6994
                0x1000065e        0x1 ./source/displayhelper.o
 .data$static$top_module_time.6995
                0x1000065f        0x1 ./source/displayhelper.o
 .data$static$lop.6972
                0x10000660        0x1 ./source/displayhelper.o
 .data$static$ledtime.6973
                0x10000661        0x1 ./source/displayhelper.o
 .data$static$flag.6974
                0x10000662        0x1 ./source/displayhelper.o
 .data$static$loop.6963
                0x10000663        0x1 ./source/displayhelper.o
 .data$static$data1save.6951
                0x10000664        0xb ./source/displayhelper.o
 *fill*         0x1000066f        0x1 
 .data$static$data1save.6937
                0x10000670        0xb ./source/displayhelper.o
 *fill*         0x1000067b        0x1 
 .data$static$data1save.6925
                0x1000067c        0xb ./source/displayhelper.o
 *fill*         0x10000687        0x1 
 .data$static$flag.6876
                0x10000688        0x4 ./source/displayhelper.o
 .data$static$flag1.6877
                0x1000068c        0x4 ./source/displayhelper.o
 .data$static$LastEncryptSystemSetPage.6879
                0x10000690        0x1 ./source/displayhelper.o
 .data$static$reinitflag.6880
                0x10000691        0x1 ./source/displayhelper.o
 .data$static$initflag.6878
                0x10000692        0x1 ./source/displayhelper.o
 *fill*         0x10000693        0x1 
 .data$static$set_odo_org.6883
                0x10000694        0x4 ./source/displayhelper.o
 .data$static$sendflagxx.6881
                0x10000698        0x1 ./source/displayhelper.o
 .data$static$initflag.6855
                0x10000699        0x1 ./source/displayhelper.o
 *fill*         0x1000069a        0x2 
 .data$static$setbcd.6856
                0x1000069c        0xa ./source/displayhelper.o
 .data$static$index.6854
                0x100006a6        0x1 ./source/displayhelper.o
 .data$static$initflag.6834
                0x100006a7        0x1 ./source/displayhelper.o
 .data$static$setbcd.6835
                0x100006a8        0xa ./source/displayhelper.o
 .data$static$index.6833
                0x100006b2        0x1 ./source/displayhelper.o
 .data$static$initflag.6810
                0x100006b3        0x1 ./source/displayhelper.o
 .data$static$setbcd.6811
                0x100006b4        0xa ./source/displayhelper.o
 .data$static$index.6809
                0x100006be        0x1 ./source/displayhelper.o
 .data$static$initflag.6791
                0x100006bf        0x1 ./source/displayhelper.o
 .data$static$index.6790
                0x100006c0        0x1 ./source/displayhelper.o
 .data$static$initflag.6772
                0x100006c1        0x1 ./source/displayhelper.o
 .data$static$index.6771
                0x100006c2        0x1 ./source/displayhelper.o
 .data$static$initflag.6753
                0x100006c3        0x1 ./source/displayhelper.o
 .data$static$index.6752
                0x100006c4        0x1 ./source/displayhelper.o
 .data$static$initflag.6734
                0x100006c5        0x1 ./source/displayhelper.o
 .data$static$index.6733
                0x100006c6        0x1 ./source/displayhelper.o
 .data$static$initflag.6715
                0x100006c7        0x1 ./source/displayhelper.o
 .data$static$index.6714
                0x100006c8        0x1 ./source/displayhelper.o
 .data$static$initflag.6693
                0x100006c9        0x1 ./source/displayhelper.o
 *fill*         0x100006ca        0x2 
 .data$static$setbcd.6694
                0x100006cc        0xa ./source/displayhelper.o
 .data$static$index.6692
                0x100006d6        0x1 ./source/displayhelper.o
 .data$static$initflag.6671
                0x100006d7        0x1 ./source/displayhelper.o
 .data$static$setbcd.6672
                0x100006d8        0xa ./source/displayhelper.o
 .data$static$index.6670
                0x100006e2        0x1 ./source/displayhelper.o
 .data$static$initflag.6649
                0x100006e3        0x1 ./source/displayhelper.o
 .data$static$setbcd.6650
                0x100006e4        0xa ./source/displayhelper.o
 .data$static$index.6648
                0x100006ee        0x1 ./source/displayhelper.o
 .data$static$initflag.6627
                0x100006ef        0x1 ./source/displayhelper.o
 .data$static$setbcd.6628
                0x100006f0        0xa ./source/displayhelper.o
 .data$static$index.6626
                0x100006fa        0x1 ./source/displayhelper.o
 .data$static$initflag.6605
                0x100006fb        0x1 ./source/displayhelper.o
 .data$static$setbcd.6606
                0x100006fc        0xa ./source/displayhelper.o
 .data$static$index.6604
                0x10000706        0x1 ./source/displayhelper.o
 .data$static$initflag.6583
                0x10000707        0x1 ./source/displayhelper.o
 .data$static$setbcd.6584
                0x10000708        0xa ./source/displayhelper.o
 .data$static$index.6582
                0x10000712        0x1 ./source/displayhelper.o
 .data$static$initflag.6560
                0x10000713        0x1 ./source/displayhelper.o
 .data$static$set_coef_last.6562
                0x10000714        0x1 ./source/displayhelper.o
 *fill*         0x10000715        0x3 
 .data$static$setbcd.6561
                0x10000718        0xa ./source/displayhelper.o
 .data$static$index.6559
                0x10000722        0x1 ./source/displayhelper.o
 .data$static$initflag.6538
                0x10000723        0x1 ./source/displayhelper.o
 .data$static$setbcd.6539
                0x10000724        0xa ./source/displayhelper.o
 .data$static$index.6537
                0x1000072e        0x1 ./source/displayhelper.o
 .data$static$initflag.6515
                0x1000072f        0x1 ./source/displayhelper.o
 .data$static$setbcd.6516
                0x10000730        0xa ./source/displayhelper.o
 .data$static$index.6514
                0x1000073a        0x1 ./source/displayhelper.o
 .data$static$initflag.6493
                0x1000073b        0x1 ./source/displayhelper.o
 .data$static$setbcd.6494
                0x1000073c        0xa ./source/displayhelper.o
 .data$static$index.6492
                0x10000746        0x1 ./source/displayhelper.o
 *fill*         0x10000747        0x1 
 .data$static$flag.6437
                0x10000748        0x4 ./source/displayhelper.o
 .data$static$LastNoEncryptSystemSetPage.6439
                0x1000074c        0x1 ./source/displayhelper.o
 .data$static$reinitflag.6440
                0x1000074d        0x1 ./source/displayhelper.o
 .data$static$initflag.6438
                0x1000074e        0x1 ./source/displayhelper.o
 .data$static$initflag.6412
                0x1000074f        0x1 ./source/displayhelper.o
 .data$static$index.6411
                0x10000750        0x1 ./source/displayhelper.o
 .data$static$initflag.6393
                0x10000751        0x1 ./source/displayhelper.o
 .data$static$index.6392
                0x10000752        0x1 ./source/displayhelper.o
 .data$static$initflag.6353
                0x10000753        0x1 ./source/displayhelper.o
 .data$static$index.6352
                0x10000754        0x1 ./source/displayhelper.o
 .data$static$state.6354
                0x10000755        0x1 ./source/displayhelper.o
 .data$static$choose_menu.6321
                0x10000756        0x1 ./source/displayhelper.o
 .data$static$Para_time.6322
                0x10000757        0x1 ./source/displayhelper.o
 .data$static$loop.6308
                0x10000758        0x1 ./source/displayhelper.o
 *fill*         0x10000759        0x3 
 .data$init$mileaddress
                0x1000075c        0x4 ./source/eeprom.o
                0x1000075c                mileaddress
 .data$init$odoadd
                0x10000760        0x4 ./source/eeprom.o
                0x10000760                odoadd
 .data$init$miles
                0x10000764        0x8 ./source/eeprom.o
                0x10000764                miles
 .data$init$paraddress
                0x1000076c        0x4 ./source/eeprom.o
                0x1000076c                paraddress
 .data$init$markaddress
                0x10000770        0x4 ./source/eeprom.o
                0x10000770                markaddress
 .data$static$status.6294
                0x10000774        0x1 ./source/kf_it.o
 .data$static$Receice_addr.6282
                0x10000775        0x1 ./source/kf_it.o
 .data$static$Receice_addr.6274
                0x10000776        0x1 ./source/kf_it.o
 .data$static$Receice_addr.6265
                0x10000777        0x1 ./source/kf_it.o
 .data$static$bus_off_count.6266
                0x10000778        0x1 ./source/kf_it.o
 .data$static$Receice_addr.6256
                0x10000779        0x1 ./source/kf_it.o
 *fill*         0x1000077a        0x2 
 .data$init$sw_input
                0x1000077c        0x5 ./source/switch.o
                0x1000077c                sw_input
 *fill*         0x10000781        0x3 
 .data$init$communicate_T123_data
                0x10000784        0xc ./source/system.o
                0x10000784                communicate_T123_data
 .data$static$buzzdelay.6476
                0x10000790        0x2 ./source/system.o
 .data$static$flag.6471
                0x10000792        0x1 ./source/system.o
 .data$static$pwmcount.6472
                0x10000793        0x1 ./source/system.o
 .data$static$_1s.6467
                0x10000794        0x1 ./source/system.o
 .data$static$charge_time.6457
                0x10000795        0x1 ./source/system.o
 .data$static$go_one.6458
                0x10000796        0x1 ./source/system.o
 .data$static$time05s.6459
                0x10000797        0x1 ./source/system.o
 .data$static$lizuo_time.6460
                0x10000798        0x1 ./source/system.o
 .data$static$selftime.6453
                0x10000799        0x1 ./source/system.o
 .data$static$toubiflag.6448
                0x1000079a        0x1 ./source/system.o
 .data$static$time.6437
                0x1000079b        0x1 ./source/system.o
 .data$static$time.6380
                0x1000079c        0x1 ./source/system.o
 .data$static$time.6366
                0x1000079d        0x1 ./source/system.o
 .data$static$clear_mile_time.6340
                0x1000079e        0x1 ./source/system.o
 .data$static$fang.6326
                0x1000079f        0x1 ./source/system.o
 .data$init$flag
                0x100007a0        0x2 ./driver/Adc.o
                0x100007a0                flag
 .data$init$e3e8state
                0x100007a2        0x2 ./driver/Adc.o
                0x100007a2                e3e8state
 .data$init$e6e7state
                0x100007a4        0x2 ./driver/Adc.o
                0x100007a4                e6e7state
 .data$static$filter_count.6287
                0x100007a6        0x1 ./driver/Adc.o
 .data$static$aver_count.6286
                0x100007a7        0x1 ./driver/Adc.o
 .data$static$filter_count.6293
                0x100007a8        0x1 ./driver/Adc.o
 .data$static$aver_count.6292
                0x100007a9        0x1 ./driver/Adc.o
 .data$static$filter_count.6298
                0x100007aa        0x1 ./driver/Adc.o
 .data$static$aver_count.6297
                0x100007ab        0x1 ./driver/Adc.o
 .data$static$filter_count.6303
                0x100007ac        0x1 ./driver/Adc.o
 .data$static$aver_count.6302
                0x100007ad        0x1 ./driver/Adc.o
 .data$static$filter_count.6308
                0x100007ae        0x1 ./driver/Adc.o
 .data$static$aver_count.6307
                0x100007af        0x1 ./driver/Adc.o
 .data$static$filter_count.6313
                0x100007b0        0x1 ./driver/Adc.o
 .data$static$aver_count.6312
                0x100007b1        0x1 ./driver/Adc.o
 .data$static$filter_count.6318
                0x100007b2        0x1 ./driver/Adc.o
 .data$static$aver_count.6317
                0x100007b3        0x1 ./driver/Adc.o
 .data$static$filter_count.6322
                0x100007b4        0x1 ./driver/Adc.o
 .data$static$aver_count.6321
                0x100007b5        0x1 ./driver/Adc.o
 .data$static$filter_count.6327
                0x100007b6        0x1 ./driver/Adc.o
 .data$static$aver_count.6326
                0x100007b7        0x1 ./driver/Adc.o
 .data$static$filter_count.6331
                0x100007b8        0x1 ./driver/Adc.o
 .data$static$aver_count.6330
                0x100007b9        0x1 ./driver/Adc.o
 .data$static$filter_count.6336
                0x100007ba        0x1 ./driver/Adc.o
 .data$static$aver_count.6335
                0x100007bb        0x1 ./driver/Adc.o
 .data$static$Bdata
                0x100007bc        0x8 ./driver/Bcan.o
 .data$static$ledgroundpre.6283
                0x100007c4        0x1 ./driver/Emios.o
 .data$static$lop.6276
                0x100007c5        0x1 ./driver/Emios.o
 .data$static$lop.6269
                0x100007c6        0x1 ./driver/Emios.o
 .data$static$key_state.6291
                0x100007c7        0x1 ./driver/key.o
 .data$static$key_time.6292
                0x100007c8        0x1 ./driver/key.o
 *fill*         0x100007c9        0x3 
 .data$init$gauge_task
                0x100007cc       0x30 ./driver/motor.o
                0x100007cc                gauge_task
 .data$static$step_delay.6320
                0x100007fc       0x18 ./driver/motor.o
 .data$init$short_out
                0x10000814        0xa ./driver/output.o
                0x10000814                short_out
 *fill*         0x1000081e        0x2 
 .data$init$feed_buff
                0x10000820        0x2 ./driver/output.o
                0x10000820                feed_buff
 .data$init$modle_protect
                0x10000822        0xa ./driver/output.o
                0x10000822                modle_protect
 .data$init$value
                0x1000082c        0x1 ./driver/output.o
                0x1000082c                value
 .data$static$pwr_sw.6276
                0x1000082d        0x1 ./driver/output.o
                0x10000830                . = ((. + 0x3) & 0xfffffffc)
 *fill*         0x1000082e        0x2 
                0x10000830                __data_end__ = .
                0x10000830                . = ((. + 0x3) & 0xfffffffc)
                0x10000830                __bss_start__ = .
 *(COMMON*)
 *(.bss*)
 .bss$comm$read_data
                0x10000830        0x4 ./system/src/kf32a_basic_flash.o
                0x10000830                read_data
 .bss$comm$bcm_sw1_f
                0x10000834        0x2 ./source/MeterConfig.o
                0x10000834                bcm_sw1_f
 .bss$comm$bcm_sw2_f
                0x10000836        0x1 ./source/MeterConfig.o
                0x10000836                bcm_sw2_f
 *fill*         0x10000837        0x1 
 .bss$comm$bcm_frq_f
                0x10000838        0x2 ./source/MeterConfig.o
                0x10000838                bcm_frq_f
 .bss$comm$bcm_senor1_f
                0x1000083a        0x2 ./source/MeterConfig.o
                0x1000083a                bcm_senor1_f
 .bss$comm$bcm_senor2_f
                0x1000083c        0x2 ./source/MeterConfig.o
                0x1000083c                bcm_senor2_f
 .bss$comm$bcm_out_st_f
                0x1000083e        0x2 ./source/MeterConfig.o
                0x1000083e                bcm_out_st_f
 .bss$comm$bcm_fb_st_f
                0x10000840        0x4 ./source/MeterConfig.o
                0x10000840                bcm_fb_st_f
 .bss$comm$bcm_sw1_r
                0x10000844        0x2 ./source/MeterConfig.o
                0x10000844                bcm_sw1_r
 .bss$comm$bcm_sw2_r
                0x10000846        0x1 ./source/MeterConfig.o
                0x10000846                bcm_sw2_r
 *fill*         0x10000847        0x1 
 .bss$comm$bcm_frq_r
                0x10000848        0x2 ./source/MeterConfig.o
                0x10000848                bcm_frq_r
 .bss$comm$bcm_senor1_r
                0x1000084a        0x2 ./source/MeterConfig.o
                0x1000084a                bcm_senor1_r
 .bss$comm$bcm_senor2_r
                0x1000084c        0x2 ./source/MeterConfig.o
                0x1000084c                bcm_senor2_r
 .bss$comm$bcm_out_st_r
                0x1000084e        0x2 ./source/MeterConfig.o
                0x1000084e                bcm_out_st_r
 .bss$comm$bcm_fb_st_r
                0x10000850        0x4 ./source/MeterConfig.o
                0x10000850                bcm_fb_st_r
 .bss$comm$bcm_sw1_t
                0x10000854        0x2 ./source/MeterConfig.o
                0x10000854                bcm_sw1_t
 .bss$comm$bcm_sw2_t
                0x10000856        0x1 ./source/MeterConfig.o
                0x10000856                bcm_sw2_t
 *fill*         0x10000857        0x1 
 .bss$comm$bcm_frq_t
                0x10000858        0x2 ./source/MeterConfig.o
                0x10000858                bcm_frq_t
 .bss$comm$bcm_senor1_t
                0x1000085a        0x2 ./source/MeterConfig.o
                0x1000085a                bcm_senor1_t
 .bss$comm$bcm_senor2_t
                0x1000085c        0x2 ./source/MeterConfig.o
                0x1000085c                bcm_senor2_t
 .bss$comm$bcm_out_st_t
                0x1000085e        0x2 ./source/MeterConfig.o
                0x1000085e                bcm_out_st_t
 .bss$comm$bcm_fb_st_t
                0x10000860        0x4 ./source/MeterConfig.o
                0x10000860                bcm_fb_st_t
 .bss$comm$ctrl_cmd
                0x10000864        0x8 ./source/MeterConfig.o
                0x10000864                ctrl_cmd
 .bss$comm$fbcm_off_line
                0x1000086c        0x1 ./source/MeterConfig.o
                0x1000086c                fbcm_off_line
 .bss$comm$rbcm_off_line
                0x1000086d        0x1 ./source/MeterConfig.o
                0x1000086d                rbcm_off_line
 .bss$comm$tbcm_off_line
                0x1000086e        0x1 ./source/MeterConfig.o
                0x1000086e                tbcm_off_line
 *fill*         0x1000086f        0x1 
 .bss$comm$tip_code1
                0x10000870        0x8 ./source/MeterConfig.o
                0x10000870                tip_code1
 .bss$comm$tip_code2
                0x10000878        0x8 ./source/MeterConfig.o
                0x10000878                tip_code2
 .bss$comm$tip_code3
                0x10000880        0x8 ./source/MeterConfig.o
                0x10000880                tip_code3
 .bss$comm$tip_code4
                0x10000888        0x8 ./source/MeterConfig.o
                0x10000888                tip_code4
 .bss$comm$power_state
                0x10000890        0x1 ./source/MeterConfig.o
                0x10000890                power_state
 *fill*         0x10000891        0x1 
 .bss$comm$F_Set_PWM
                0x10000892        0x2 ./source/MeterConfig.o
                0x10000892                F_Set_PWM
 .bss$comm$R_Set_PWM
                0x10000894        0x2 ./source/MeterConfig.o
                0x10000894                R_Set_PWM
 .bss$comm$T_Set_PWM
                0x10000896        0x2 ./source/MeterConfig.o
                0x10000896                T_Set_PWM
 .bss$comm$fmode_mask
                0x10000898        0x8 ./source/MeterConfig.o
                0x10000898                fmode_mask
 .bss$comm$rmode_mask
                0x100008a0        0x8 ./source/MeterConfig.o
                0x100008a0                rmode_mask
 .bss$comm$tmode_mask
                0x100008a8        0x8 ./source/MeterConfig.o
                0x100008a8                tmode_mask
 .bss$static$power_off_delay.6291
                0x100008b0        0x1 ./source/MeterConfig.o
 *fill*         0x100008b1        0x3 
 .bss$comm$SendBuff
                0x100008b4       0x18 ./source/T123.o
                0x100008b4                SendBuff
 .bss$comm$Sendbuffx
                0x100008cc      0xf00 ./source/T123.o
                0x100008cc                Sendbuffx
 .bss$comm$domsg
                0x100017cc        0xf ./source/T123.o
                0x100017cc                domsg
 *fill*         0x100017db        0x1 
 .bss$static$sendframecmd
                0x100017dc       0x24 ./source/bootloader.o
 .bss$comm$CanData
                0x10001800      0x168 ./source/canreceive.o
                0x10001800                CanData
 .bss$comm$timeout
                0x10001968       0x2d ./source/canreceive.o
                0x10001968                timeout
 *fill*         0x10001995        0x1 
 .bss$static$SP4.6369
                0x10001996        0x2 ./source/canreceive.o
 .bss$static$sp3.6368
                0x10001998        0x2 ./source/canreceive.o
 *fill*         0x1000199a        0x2 
 .bss$static$sp1.6366
                0x1000199c        0x4 ./source/canreceive.o
 .bss$static$sp2.6367
                0x100019a0        0x4 ./source/canreceive.o
 .bss$comm$can_water_low
                0x100019a4        0x1 ./source/display.o
                0x100019a4                can_water_low
 .bss$comm$abswarn
                0x100019a5        0x1 ./source/display.o
                0x100019a5                abswarn
 .bss$comm$Control_information_data7
                0x100019a6        0x1 ./source/display.o
                0x100019a6                Control_information_data7
 .bss$comm$ID_0CFF0B4A_data2
                0x100019a7        0x1 ./source/display.o
                0x100019a7                ID_0CFF0B4A_data2
 .bss$comm$battery_1_data6
                0x100019a8        0x1 ./source/display.o
                0x100019a8                battery_1_data6
 .bss$comm$Control_information_data6
                0x100019a9        0x1 ./source/display.o
                0x100019a9                Control_information_data6
 .bss$comm$ID_18FF2A48_data5
                0x100019aa        0x1 ./source/display.o
                0x100019aa                ID_18FF2A48_data5
 .bss$comm$ID_18FF2848_data7
                0x100019ab        0x1 ./source/display.o
                0x100019ab                ID_18FF2848_data7
 .bss$comm$veh_scr
                0x100019ac        0x1 ./source/display.o
                0x100019ac                veh_scr
 .bss$comm$_1CEBFF2F
                0x100019ad        0x1 ./source/display.o
                0x100019ad                _1CEBFF2F
 .bss$comm$_18FECA2F
                0x100019ae        0x1 ./source/display.o
                0x100019ae                _18FECA2F
 .bss$comm$_0CFE5A2F_data4
                0x100019af        0x1 ./source/display.o
                0x100019af                _0CFE5A2F_data4
 .bss$comm$_0CFE5A2F_data1
                0x100019b0        0x1 ./source/display.o
                0x100019b0                _0CFE5A2F_data1
 .bss$comm$ID_18FF2D47_data6
                0x100019b1        0x1 ./source/display.o
                0x100019b1                ID_18FF2D47_data6
 .bss$comm$Control_information_data0
                0x100019b2        0x1 ./source/display.o
                0x100019b2                Control_information_data0
 .bss$comm$batt_time
                0x100019b3        0x1 ./source/display.o
                0x100019b3                batt_time
 .bss$comm$motor_tem
                0x100019b4        0x1 ./source/display.o
                0x100019b4                motor_tem
 .bss$comm$motor_flag
                0x100019b5        0x1 ./source/display.o
                0x100019b5                motor_flag
 .bss$comm$ID_18FF2D47_data5
                0x100019b6        0x1 ./source/display.o
                0x100019b6                ID_18FF2D47_data5
 *fill*         0x100019b7        0x1 
 .bss$comm$_18FF8001
                0x100019b8        0x8 ./source/display.o
                0x100019b8                _18FF8001
 .bss$comm$_18FF2D47
                0x100019c0        0x8 ./source/display.o
                0x100019c0                _18FF2D47
 .bss$comm$add  0x100019c8        0xa ./source/display.o
                0x100019c8                add
 *fill*         0x100019d2        0x2 
 .bss$comm$_18FF0152
                0x100019d4        0x8 ./source/display.o
                0x100019d4                _18FF0152
 .bss$comm$_18FF3047
                0x100019dc        0x8 ./source/display.o
                0x100019dc                _18FF3047
 .bss$comm$_18FF3147
                0x100019e4        0x8 ./source/display.o
                0x100019e4                _18FF3147
 .bss$comm$_18FF3247
                0x100019ec        0x8 ./source/display.o
                0x100019ec                _18FF3247
 .bss$comm$elec_time
                0x100019f4        0x1 ./source/display.o
                0x100019f4                elec_time
 .bss$comm$motor_state
                0x100019f5        0x1 ./source/display.o
                0x100019f5                motor_state
 .bss$comm$ID_18FF2848_data5
                0x100019f6        0x1 ./source/display.o
                0x100019f6                ID_18FF2848_data5
 *fill*         0x100019f7        0x1 
 .bss$comm$_18FF2848
                0x100019f8        0x8 ./source/display.o
                0x100019f8                _18FF2848
 .bss$comm$Battery_System_Volt
                0x10001a00        0x2 ./source/display.o
                0x10001a00                Battery_System_Volt
 .bss$comm$Battery_Charge_Curr
                0x10001a02        0x2 ./source/display.o
                0x10001a02                Battery_Charge_Curr
 .bss$comm$Box_High_Temp
                0x10001a04        0x1 ./source/display.o
                0x10001a04                Box_High_Temp
 .bss$comm$Temp_jicha
                0x10001a05        0x1 ./source/display.o
                0x10001a05                Temp_jicha
 .bss$comm$ID_18FF2948_data6
                0x10001a06        0x1 ./source/display.o
                0x10001a06                ID_18FF2948_data6
 .bss$comm$Battery_Total_Count
                0x10001a07        0x1 ./source/display.o
                0x10001a07                Battery_Total_Count
 .bss$comm$_18FF2948
                0x10001a08        0x8 ./source/display.o
                0x10001a08                _18FF2948
 .bss$comm$_18FF2A48
                0x10001a10        0x8 ./source/display.o
                0x10001a10                _18FF2A48
 .bss$comm$Temp_Positive
                0x10001a18        0x1 ./source/display.o
                0x10001a18                Temp_Positive
 .bss$comm$ID_18FF2A48_data0
                0x10001a19        0x1 ./source/display.o
                0x10001a19                ID_18FF2A48_data0
 .bss$comm$ID_18FF2A48_data1
                0x10001a1a        0x1 ./source/display.o
                0x10001a1a                ID_18FF2A48_data1
 .bss$comm$ID_18FF2A48_data2
                0x10001a1b        0x1 ./source/display.o
                0x10001a1b                ID_18FF2A48_data2
 .bss$comm$b_postion
                0x10001a1c        0x1 ./source/display.o
                0x10001a1c                b_postion
 .bss$comm$ID_18FF2E48_data0
                0x10001a1d        0x1 ./source/display.o
                0x10001a1d                ID_18FF2E48_data0
 .bss$comm$ID_18FF2E48_data1
                0x10001a1e        0x1 ./source/display.o
                0x10001a1e                ID_18FF2E48_data1
 .bss$comm$ID_18FF2E48_data2
                0x10001a1f        0x1 ./source/display.o
                0x10001a1f                ID_18FF2E48_data2
 .bss$comm$ID_18FF2E48_data3
                0x10001a20        0x1 ./source/display.o
                0x10001a20                ID_18FF2E48_data3
 *fill*         0x10001a21        0x3 
 .bss$comm$ID_18ff0257_data
                0x10001a24        0x8 ./source/display.o
                0x10001a24                ID_18ff0257_data
 .bss$comm$_0CFFEB4A
                0x10001a2c        0x8 ./source/display.o
                0x10001a2c                _0CFFEB4A
 .bss$comm$_10FFC29E
                0x10001a34        0x8 ./source/display.o
                0x10001a34                _10FFC29E
 .bss$comm$_18FF0257
                0x10001a3c        0x8 ./source/display.o
                0x10001a3c                _18FF0257
 .bss$comm$_18ff2b48
                0x10001a44        0x8 ./source/display.o
                0x10001a44                _18ff2b48
 .bss$comm$any_Remain_time
                0x10001a4c        0x1 ./source/display.o
                0x10001a4c                any_Remain_time
 .bss$comm$electric_shake
                0x10001a4d        0x1 ./source/display.o
                0x10001a4d                electric_shake
 .bss$comm$Ankai_Add_190703
                0x10001a4e        0x1 ./source/display.o
                0x10001a4e                Ankai_Add_190703
 .bss$comm$ID_18FF2C48_data5
                0x10001a4f        0x1 ./source/display.o
                0x10001a4f                ID_18FF2C48_data5
 .bss$comm$battery_2_data6
                0x10001a50        0x1 ./source/display.o
                0x10001a50                battery_2_data6
 .bss$comm$battery_2_soc
                0x10001a51        0x1 ./source/display.o
                0x10001a51                battery_2_soc
 .bss$comm$battery_2_system_volt
                0x10001a52        0x2 ./source/display.o
                0x10001a52                battery_2_system_volt
 .bss$comm$battery_2_system_curr
                0x10001a54        0x2 ./source/display.o
                0x10001a54                battery_2_system_curr
 .bss$comm$Remain_Energy
                0x10001a56        0x2 ./source/display.o
                0x10001a56                Remain_Energy
 .bss$comm$Battery_2_Remain_enery
                0x10001a58        0x2 ./source/display.o
                0x10001a58                Battery_2_Remain_enery
 .bss$comm$motor_torque
                0x10001a5a        0x2 ./source/display.o
                0x10001a5a                motor_torque
 .bss$comm$motor_dc_volt
                0x10001a5c        0x2 ./source/display.o
                0x10001a5c                motor_dc_volt
 .bss$comm$motor_dc_curr
                0x10001a5e        0x2 ./source/display.o
                0x10001a5e                motor_dc_curr
 .bss$comm$Battery_chong_Curr_1
                0x10001a60        0x2 ./source/display.o
                0x10001a60                Battery_chong_Curr_1
 .bss$comm$Battery_fang_Curr_1
                0x10001a62        0x2 ./source/display.o
                0x10001a62                Battery_fang_Curr_1
 .bss$comm$WaterTem
                0x10001a64        0x2 ./source/display.o
                0x10001a64                WaterTem
 .bss$comm$motor_pow
                0x10001a66        0x8 ./source/display.o
                0x10001a66                motor_pow
 .bss$comm$Add_Comm
                0x10001a6e        0x1 ./source/display.o
                0x10001a6e                Add_Comm
 .bss$comm$Low_Buzz
                0x10001a6f        0x1 ./source/display.o
                0x10001a6f                Low_Buzz
 .bss$comm$fog_alarm
                0x10001a70        0x4 ./source/display.o
                0x10001a70                fog_alarm
 .bss$comm$ID_18FF2D48_data6
                0x10001a74        0x1 ./source/display.o
                0x10001a74                ID_18FF2D48_data6
 .bss$comm$ID_18FF2D48_data5
                0x10001a75        0x1 ./source/display.o
                0x10001a75                ID_18FF2D48_data5
 .bss$comm$ID_18FF2D48_data4
                0x10001a76        0x1 ./source/display.o
                0x10001a76                ID_18FF2D48_data4
 *fill*         0x10001a77        0x1 
 .bss$comm$Battery_2_single_high_volt
                0x10001a78        0x2 ./source/display.o
                0x10001a78                Battery_2_single_high_volt
 .bss$comm$Battery_2_single_low_volt
                0x10001a7a        0x2 ./source/display.o
                0x10001a7a                Battery_2_single_low_volt
 .bss$comm$insulate_value
                0x10001a7c        0x2 ./source/display.o
                0x10001a7c                insulate_value
 .bss$comm$insulate_flag
                0x10001a7e        0x1 ./source/display.o
                0x10001a7e                insulate_flag
 .bss$comm$Life
                0x10001a7f        0x1 ./source/display.o
                0x10001a7f                Life
 .bss$comm$Model_Temperure
                0x10001a80       0x10 ./source/display.o
                0x10001a80                Model_Temperure
 .bss$comm$_18FF2B49
                0x10001a90        0x8 ./source/display.o
                0x10001a90                _18FF2B49
 .bss$comm$_0CFF324A
                0x10001a98        0x8 ./source/display.o
                0x10001a98                _0CFF324A
 .bss$comm$Control_information_data5
                0x10001aa0        0x1 ./source/display.o
                0x10001aa0                Control_information_data5
 .bss$comm$Control_information_data1
                0x10001aa1        0x1 ./source/display.o
                0x10001aa1                Control_information_data1
 *fill*         0x10001aa2        0x2 
 .bss$comm$_0CFF0B4A
                0x10001aa4        0x8 ./source/display.o
                0x10001aa4                _0CFF0B4A
 .bss$comm$abs_fault
                0x10001aac        0x1 ./source/display.o
                0x10001aac                abs_fault
 .bss$comm$ChargingRelay
                0x10001aad        0x1 ./source/display.o
                0x10001aad                ChargingRelay
 .bss$comm$FaultAlarmAdd
                0x10001aae        0x1 ./source/display.o
                0x10001aae                FaultAlarmAdd
 *fill*         0x10001aaf        0x1 
 .bss$comm$_18FF5B52
                0x10001ab0        0x8 ./source/display.o
                0x10001ab0                _18FF5B52
 .bss$comm$add_fog
                0x10001ab8        0x8 ./source/display.o
                0x10001ab8                add_fog
 .bss$comm$_18FFC13A
                0x10001ac0        0x8 ./source/display.o
                0x10001ac0                _18FFC13A
 .bss$comm$_18FF45F4
                0x10001ac8        0x8 ./source/display.o
                0x10001ac8                _18FF45F4
 .bss$comm$_10FFC09E
                0x10001ad0        0x8 ./source/display.o
                0x10001ad0                _10FFC09E
 .bss$comm$_10FFC19E
                0x10001ad8        0x8 ./source/display.o
                0x10001ad8                _10FFC19E
 .bss$comm$_0CFF114A
                0x10001ae0        0x8 ./source/display.o
                0x10001ae0                _0CFF114A
 .bss$comm$errcodemix
                0x10001ae8        0x6 ./source/display.o
                0x10001ae8                errcodemix
 *fill*         0x10001aee        0x2 
 .bss$comm$_18FF064A
                0x10001af0        0x8 ./source/display.o
                0x10001af0                _18FF064A
 .bss$comm$_18FF2C47
                0x10001af8        0x8 ./source/display.o
                0x10001af8                _18FF2C47
 .bss$comm$_18FF5A52
                0x10001b00        0x8 ./source/display.o
                0x10001b00                _18FF5A52
 .bss$comm$_0CFF0A4A
                0x10001b08        0x8 ./source/display.o
                0x10001b08                _0CFF0A4A
 .bss$comm$_18FF0258
                0x10001b10        0x8 ./source/display.o
                0x10001b10                _18FF0258
 .bss$comm$battery_1_soc
                0x10001b18        0x1 ./source/display.o
                0x10001b18                battery_1_soc
 .bss$comm$_18FF0498_data7
                0x10001b19        0x1 ./source/display.o
                0x10001b19                _18FF0498_data7
 .bss$comm$Single_mile
                0x10001b1a        0x2 ./source/display.o
                0x10001b1a                Single_mile
 .bss$comm$VCU_MA
                0x10001b1c       0x64 ./source/display.o
                0x10001b1c                VCU_MA
 .bss$comm$BMS_MA
                0x10001b80       0x64 ./source/display.o
                0x10001b80                BMS_MA
 .bss$comm$MOTOR_MA
                0x10001be4       0x64 ./source/display.o
                0x10001be4                MOTOR_MA
 .bss$comm$DAQI_MA
                0x10001c48       0x64 ./source/display.o
                0x10001c48                DAQI_MA
 .bss$comm$TURN_MA
                0x10001cac       0x64 ./source/display.o
                0x10001cac                TURN_MA
 .bss$comm$XIAOQONG_MA
                0x10001d10       0x64 ./source/display.o
                0x10001d10                XIAOQONG_MA
 .bss$comm$DIYA_MA
                0x10001d74       0x64 ./source/display.o
                0x10001d74                DIYA_MA
 .bss$comm$VCU_Index
                0x10001dd8        0x1 ./source/display.o
                0x10001dd8                VCU_Index
 .bss$comm$BMS_Index
                0x10001dd9        0x1 ./source/display.o
                0x10001dd9                BMS_Index
 .bss$comm$MOTOR_Index
                0x10001dda        0x1 ./source/display.o
                0x10001dda                MOTOR_Index
 .bss$comm$DAQI_Index
                0x10001ddb        0x1 ./source/display.o
                0x10001ddb                DAQI_Index
 .bss$comm$TURN_Index
                0x10001ddc        0x1 ./source/display.o
                0x10001ddc                TURN_Index
 .bss$comm$XIAOQONG_Index
                0x10001ddd        0x1 ./source/display.o
                0x10001ddd                XIAOQONG_Index
 .bss$comm$DIYA_Index
                0x10001dde        0x1 ./source/display.o
                0x10001dde                DIYA_Index
 .bss$static$vcu_temp.6551
                0x10001ddf        0x1 ./source/display.o
 .bss$static$bms_temp.6554
                0x10001de0        0x1 ./source/display.o
 .bss$static$motor_temp.6557
                0x10001de1        0x1 ./source/display.o
 .bss$static$daqi_temp.6560
                0x10001de2        0x1 ./source/display.o
 .bss$static$turn_temp.6563
                0x10001de3        0x1 ./source/display.o
 .bss$static$xiaoqong_temp.6566
                0x10001de4        0x1 ./source/display.o
 .bss$static$diya_temp.6569
                0x10001de5        0x1 ./source/display.o
 .bss$static$timeoutxxxxxxx.6575
                0x10001de6        0x1 ./source/display.o
 .bss$static$timeoutxxxxxxx.6541
                0x10001de7        0x1 ./source/display.o
 .bss$static$timeoutxxxxxxx.6522
                0x10001de8        0x1 ./source/display.o
 .bss$static$timeoutxxxxxxx.6509
                0x10001de9        0x1 ./source/display.o
 .bss$static$timeoutxxxxxxx.6496
                0x10001dea        0x1 ./source/display.o
 .bss$static$timeoutxxxxxxx.6467
                0x10001deb        0x1 ./source/display.o
 .bss$static$timeoutxxxxxxx.6454
                0x10001dec        0x1 ./source/display.o
 .bss$static$timeoutxxxxxxx.6437
                0x10001ded        0x1 ./source/display.o
 .bss$static$timeoutxxxxxxx.6417
                0x10001dee        0x1 ./source/display.o
 .bss$static$timeoutxxxxxxx.6404
                0x10001def        0x1 ./source/display.o
 .bss$static$timedata
                0x10001df0        0x5 ./source/displayhelper.o
 *fill*         0x10001df5        0x1 
 .bss$comm$set_password
                0x10001df6        0x2 ./source/displayhelper.o
                0x10001df6                set_password
 .bss$static$checkin
                0x10001df8        0x1 ./source/displayhelper.o
 *fill*         0x10001df9        0x3 
 .bss$comm$disp
                0x10001dfc       0xc8 ./source/displayhelper.o
                0x10001dfc                disp
 .bss$comm$tmp_buff
                0x10001ec4        0x7 ./source/displayhelper.o
                0x10001ec4                tmp_buff
 .bss$static$outpower_state.7048
                0x10001ecb        0x1 ./source/displayhelper.o
 .bss$static$pre_bcm_fb_st_f.6996
                0x10001ecc        0x4 ./source/displayhelper.o
 .bss$static$pre_bcm_out_st_f.6999
                0x10001ed0        0x2 ./source/displayhelper.o
 .bss$static$pre_bcm_sw1_f.7002
                0x10001ed2        0x2 ./source/displayhelper.o
 .bss$static$pre_bcm_sw2_f.7005
                0x10001ed4        0x1 ./source/displayhelper.o
 *fill*         0x10001ed5        0x3 
 .bss$static$front_power_state.7008
                0x10001ed8        0x4 ./source/displayhelper.o
 .bss$static$pre_bcm_fb_st_r.6997
                0x10001edc        0x4 ./source/displayhelper.o
 .bss$static$pre_bcm_out_st_r.7000
                0x10001ee0        0x2 ./source/displayhelper.o
 .bss$static$pre_bcm_sw1_r.7003
                0x10001ee2        0x2 ./source/displayhelper.o
 .bss$static$pre_bcm_sw2_r.7006
                0x10001ee4        0x1 ./source/displayhelper.o
 *fill*         0x10001ee5        0x3 
 .bss$static$middle_power_state.7009
                0x10001ee8        0x4 ./source/displayhelper.o
 .bss$static$pre_bcm_fb_st_t.6998
                0x10001eec        0x4 ./source/displayhelper.o
 .bss$static$pre_bcm_out_st_t.7001
                0x10001ef0        0x2 ./source/displayhelper.o
 .bss$static$pre_bcm_sw1_t.7004
                0x10001ef2        0x2 ./source/displayhelper.o
 .bss$static$pre_bcm_sw2_t.7007
                0x10001ef4        0x1 ./source/displayhelper.o
 *fill*         0x10001ef5        0x3 
 .bss$static$top_power_state.7010
                0x10001ef8        0x4 ./source/displayhelper.o
 .bss$static$xx.6882
                0x10001efc        0x1 ./source/displayhelper.o
 *fill*         0x10001efd        0x1 
 .bss$static$set_odometer_last.6517
                0x10001efe        0x2 ./source/displayhelper.o
 .bss$static$data.6358
                0x10001f00        0xc ./source/displayhelper.o
 .bss$comm$Air_Alarm
                0x10001f0c        0x1 ./source/eeprom.o
                0x10001f0c                Air_Alarm
 .bss$comm$Speed_Alarm
                0x10001f0d        0x1 ./source/eeprom.o
                0x10001f0d                Speed_Alarm
 .bss$comm$Oil_Alarm
                0x10001f0e        0x1 ./source/eeprom.o
                0x10001f0e                Oil_Alarm
 .bss$comm$Ranyou_Alarm
                0x10001f0f        0x1 ./source/eeprom.o
                0x10001f0f                Ranyou_Alarm
 .bss$comm$Air_Coef
                0x10001f10        0x1 ./source/eeprom.o
                0x10001f10                Air_Coef
 .bss$comm$Air2_Coef
                0x10001f11        0x1 ./source/eeprom.o
                0x10001f11                Air2_Coef
 .bss$comm$Coef
                0x10001f12        0x1 ./source/eeprom.o
                0x10001f12                Coef
 .bss$comm$Rain_Delay_Time
                0x10001f13        0x1 ./source/eeprom.o
                0x10001f13                Rain_Delay_Time
 .bss$comm$Fuel_Coef
                0x10001f14        0x1 ./source/eeprom.o
                0x10001f14                Fuel_Coef
 .bss$comm$backlight_level
                0x10001f15        0x1 ./source/eeprom.o
                0x10001f15                backlight_level
 .bss$comm$Bus_Type
                0x10001f16        0x1 ./source/eeprom.o
                0x10001f16                Bus_Type
 *fill*         0x10001f17        0x1 
 .bss$comm$odometer_const
                0x10001f18        0x2 ./source/eeprom.o
                0x10001f18                odometer_const
 .bss$comm$odometer_const_2012
                0x10001f1a        0x2 ./source/eeprom.o
                0x10001f1a                odometer_const_2012
 .bss$comm$Pulse
                0x10001f1c        0x2 ./source/eeprom.o
                0x10001f1c                Pulse
 .bss$comm$Set_Air_Alarm
                0x10001f1e        0x1 ./source/eeprom.o
                0x10001f1e                Set_Air_Alarm
 .bss$comm$Set_Speed_Alarm
                0x10001f1f        0x1 ./source/eeprom.o
                0x10001f1f                Set_Speed_Alarm
 .bss$comm$Set_Oil_Alarm
                0x10001f20        0x1 ./source/eeprom.o
                0x10001f20                Set_Oil_Alarm
 .bss$comm$Set_Ranyou_Alarm
                0x10001f21        0x1 ./source/eeprom.o
                0x10001f21                Set_Ranyou_Alarm
 .bss$comm$Set_Air_Coef
                0x10001f22        0x1 ./source/eeprom.o
                0x10001f22                Set_Air_Coef
 .bss$comm$Set_Air2_Coef
                0x10001f23        0x1 ./source/eeprom.o
                0x10001f23                Set_Air2_Coef
 .bss$comm$Set_Coef
                0x10001f24        0x1 ./source/eeprom.o
                0x10001f24                Set_Coef
 .bss$comm$Set_Rain_Delay_Time
                0x10001f25        0x1 ./source/eeprom.o
                0x10001f25                Set_Rain_Delay_Time
 .bss$comm$Set_Fuel_Coef
                0x10001f26        0x1 ./source/eeprom.o
                0x10001f26                Set_Fuel_Coef
 .bss$comm$Set_backlight_level
                0x10001f27        0x1 ./source/eeprom.o
                0x10001f27                Set_backlight_level
 .bss$comm$Set_odometer_const
                0x10001f28        0x2 ./source/eeprom.o
                0x10001f28                Set_odometer_const
 .bss$comm$Set_Pulse
                0x10001f2a        0x2 ./source/eeprom.o
                0x10001f2a                Set_Pulse
 .bss$comm$Set_buzz
                0x10001f2c        0x1 ./source/eeprom.o
                0x10001f2c                Set_buzz
 .bss$comm$Coef_2012
                0x10001f2d        0x1 ./source/eeprom.o
                0x10001f2d                Coef_2012
 *fill*         0x10001f2e        0x2 
 .bss$comm$MeterPara
                0x10001f30       0x20 ./source/eeprom.o
                0x10001f30                MeterPara
 .bss$static$alarm_count.6284
                0x10001f50        0x1 ./source/kf_it.o
 .bss$static$alarm_count.6276
                0x10001f51        0x1 ./source/kf_it.o
 .bss$static$alarm_count.6268
                0x10001f52        0x1 ./source/kf_it.o
 .bss$static$alarm_count.6258
                0x10001f53        0x1 ./source/kf_it.o
 .bss$comm$port_mask
                0x10001f54        0x8 ./source/switch.o
                0x10001f54                port_mask
 .bss$comm$port_a
                0x10001f5c        0x2 ./source/switch.o
                0x10001f5c                port_a
 .bss$comm$port_c
                0x10001f5e        0x2 ./source/switch.o
                0x10001f5e                port_c
 .bss$comm$port_d
                0x10001f60        0x2 ./source/switch.o
                0x10001f60                port_d
 .bss$comm$port_b
                0x10001f62        0x2 ./source/switch.o
                0x10001f62                port_b
 .bss$comm$i    0x10001f64        0x1 ./source/switch.o
                0x10001f64                i
 .bss$comm$j    0x10001f65        0x1 ./source/switch.o
                0x10001f65                j
 .bss$comm$k    0x10001f66        0x1 ./source/switch.o
                0x10001f66                k
 *fill*         0x10001f67        0x1 
 .bss$comm$Art  0x10001f68        0x8 ./source/system.o
                0x10001f68                Art
 .bss$comm$Syslogic
                0x10001f70        0x8 ./source/system.o
                0x10001f70                Syslogic
 .bss$comm$SysTickPer1ms
                0x10001f78        0x4 ./source/system.o
                0x10001f78                SysTickPer1ms
 .bss$comm$A5Count
                0x10001f7c        0x4 ./source/system.o
                0x10001f7c                A5Count
 .bss$comm$Veh_odo
                0x10001f80        0x4 ./source/system.o
                0x10001f80                Veh_odo
 .bss$comm$Set_Veh_odo
                0x10001f84        0x4 ./source/system.o
                0x10001f84                Set_Veh_odo
 .bss$comm$odo  0x10001f88        0x4 ./source/system.o
                0x10001f88                odo
 .bss$comm$time
                0x10001f8c        0x4 ./source/system.o
                0x10001f8c                time
 .bss$comm$Veh_trip
                0x10001f90        0x2 ./source/system.o
                0x10001f90                Veh_trip
 *fill*         0x10001f92        0x2 
 .bss$comm$DisplaySymbol
                0x10001f94        0x8 ./source/system.o
                0x10001f94                DisplaySymbol
 .bss$comm$Vbat
                0x10001f9c        0x2 ./source/system.o
                0x10001f9c                Vbat
 .bss$comm$eng_speed
                0x10001f9e        0x2 ./source/system.o
                0x10001f9e                eng_speed
 .bss$comm$veh_speed
                0x10001fa0        0x2 ./source/system.o
                0x10001fa0                veh_speed
 .bss$comm$veh_speed_display
                0x10001fa2        0x2 ./source/system.o
                0x10001fa2                veh_speed_display
 .bss$comm$veh_bar1
                0x10001fa4        0x2 ./source/system.o
                0x10001fa4                veh_bar1
 .bss$comm$veh_bar2
                0x10001fa6        0x2 ./source/system.o
                0x10001fa6                veh_bar2
 .bss$comm$veh_soc
                0x10001fa8        0x2 ./source/system.o
                0x10001fa8                veh_soc
 .bss$comm$blinker
                0x10001faa        0x1 ./source/system.o
                0x10001faa                blinker
 .bss$comm$blinkerfast
                0x10001fab        0x1 ./source/system.o
                0x10001fab                blinkerfast
 .bss$comm$BcanDelay
                0x10001fac        0x1 ./source/system.o
                0x10001fac                BcanDelay
 .bss$comm$DcanDelay
                0x10001fad        0x1 ./source/system.o
                0x10001fad                DcanDelay
 .bss$comm$PcanDelay
                0x10001fae        0x1 ./source/system.o
                0x10001fae                PcanDelay
 .bss$comm$TcanDelay
                0x10001faf        0x1 ./source/system.o
                0x10001faf                TcanDelay
 .bss$comm$rtc  0x10001fb0        0x7 ./source/system.o
                0x10001fb0                rtc
 *fill*         0x10001fb7        0x1 
 .bss$comm$Send
                0x10001fb8        0x8 ./source/system.o
                0x10001fb8                Send
 .bss$comm$speed_life
                0x10001fc0        0x1 ./source/system.o
                0x10001fc0                speed_life
 .bss$comm$bootloader
                0x10001fc1        0x1 ./source/system.o
                0x10001fc1                bootloader
 .bss$comm$bootcmd
                0x10001fc2        0x1 ./source/system.o
                0x10001fc2                bootcmd
 *fill*         0x10001fc3        0x1 
 .bss$comm$Battery_chong_Curr
                0x10001fc4        0x2 ./source/system.o
                0x10001fc4                Battery_chong_Curr
 .bss$comm$Battery_fang_Curr
                0x10001fc6        0x2 ./source/system.o
                0x10001fc6                Battery_fang_Curr
 .bss$comm$Battery_High_Volt
                0x10001fc8        0x2 ./source/system.o
                0x10001fc8                Battery_High_Volt
 .bss$comm$Battery_Low_Volt
                0x10001fca        0x2 ./source/system.o
                0x10001fca                Battery_Low_Volt
 .bss$comm$Charge_Remain_time
                0x10001fcc        0x2 ./source/system.o
                0x10001fcc                Charge_Remain_time
 .bss$comm$Drive_mile
                0x10001fce        0x2 ./source/system.o
                0x10001fce                Drive_mile
 .bss$comm$_0CFF0C4A
                0x10001fd0        0x8 ./source/system.o
                0x10001fd0                _0CFF0C4A
 .bss$comm$_0CFF0D4A
                0x10001fd8        0x8 ./source/system.o
                0x10001fd8                _0CFF0D4A
 .bss$comm$Aver_Dianhao
                0x10001fe0        0x1 ./source/system.o
                0x10001fe0                Aver_Dianhao
 .bss$comm$Break_Pent
                0x10001fe1        0x1 ./source/system.o
                0x10001fe1                Break_Pent
 *fill*         0x10001fe2        0x2 
 .bss$comm$Uart2Receive
                0x10001fe4        0x8 ./source/system.o
                0x10001fe4                Uart2Receive
 .bss$comm$ReceIndex
                0x10001fec        0x1 ./source/system.o
                0x10001fec                ReceIndex
 .bss$comm$Temp_Vbat
                0x10001fed        0x1 ./source/system.o
                0x10001fed                Temp_Vbat
 .bss$comm$tony
                0x10001fee        0x1 ./source/system.o
                0x10001fee                tony
 .bss$static$work_time.6449
                0x10001fef        0x1 ./source/system.o
 .bss$static$add_time.6388
                0x10001ff0        0x1 ./source/system.o
 .bss$static$add_flag.6389
                0x10001ff1        0x1 ./source/system.o
 .bss$static$flag_10s.6391
                0x10001ff2        0x1 ./source/system.o
 *fill*         0x10001ff3        0x1 
 .bss$static$buzz_time.6386
                0x10001ff4        0x2 ./source/system.o
 .bss$static$pre_door_time.6392
                0x10001ff6        0x1 ./source/system.o
 .bss$static$pre_life.6379
                0x10001ff7        0x1 ./source/system.o
 .bss$static$pre_data.6365
                0x10001ff8        0x8 ./source/system.o
 .bss$static$single_mile.6361
                0x10002000        0x4 ./source/system.o
 .bss$comm$meter
                0x10002004        0xe ./driver/Adc.o
                0x10002004                meter
 .bss$comm$buf_16
                0x10002012        0x2 ./driver/Adc.o
                0x10002012                buf_16
 .bss$static$sum.6289
                0x10002014        0x4 ./driver/Adc.o
 .bss$static$log.6288
                0x10002018       0x20 ./driver/Adc.o
 .bss$static$sum.6295
                0x10002038        0x4 ./driver/Adc.o
 .bss$static$log.6294
                0x1000203c       0x20 ./driver/Adc.o
 .bss$static$sum.6300
                0x1000205c        0x4 ./driver/Adc.o
 .bss$static$log.6299
                0x10002060       0x20 ./driver/Adc.o
 .bss$static$sum.6305
                0x10002080        0x4 ./driver/Adc.o
 .bss$static$log.6304
                0x10002084       0x20 ./driver/Adc.o
 .bss$static$sum.6310
                0x100020a4        0x4 ./driver/Adc.o
 .bss$static$log.6309
                0x100020a8       0x20 ./driver/Adc.o
 .bss$static$sum.6315
                0x100020c8        0x4 ./driver/Adc.o
 .bss$static$log.6314
                0x100020cc       0x20 ./driver/Adc.o
 .bss$static$sum.6320
                0x100020ec        0x4 ./driver/Adc.o
 .bss$static$log.6319
                0x100020f0       0x20 ./driver/Adc.o
 .bss$static$sum.6324
                0x10002110        0x4 ./driver/Adc.o
 .bss$static$log.6323
                0x10002114       0x20 ./driver/Adc.o
 .bss$static$sum.6329
                0x10002134        0x4 ./driver/Adc.o
 .bss$static$log.6328
                0x10002138       0x20 ./driver/Adc.o
 .bss$static$sum.6333
                0x10002158        0x4 ./driver/Adc.o
 .bss$static$log.6332
                0x1000215c       0x20 ./driver/Adc.o
 .bss$static$sum.6338
                0x1000217c        0x4 ./driver/Adc.o
 .bss$static$log.6337
                0x10002180       0x20 ./driver/Adc.o
 .bss$comm$BCanSendBuff
                0x100021a0       0x18 ./driver/Bcan.o
                0x100021a0                BCanSendBuff
 .bss$comm$BCanSendbuffx
                0x100021b8      0x500 ./driver/Bcan.o
                0x100021b8                BCanSendbuffx
 .bss$comm$BCandomsg
                0x100026b8       0x14 ./driver/Bcan.o
                0x100026b8                BCandomsg
 .bss$comm$BCanData
                0x100026cc       0x90 ./driver/Bcan.o
                0x100026cc                BCanData
 .bss$comm$DCanSendBuff
                0x1000275c       0x18 ./driver/Dcan.o
                0x1000275c                DCanSendBuff
 .bss$static$GpioPinNum.6256
                0x10002774        0x2 ./driver/Emios.o
 *fill*         0x10002776        0x2 
 .bss$comm$PCanSendBuff
                0x10002778       0x18 ./driver/Pcan.o
                0x10002778                PCanSendBuff
 .bss$comm$PCanSendbuffx
                0x10002790      0x500 ./driver/Pcan.o
                0x10002790                PCanSendbuffx
 .bss$comm$PCandomsg
                0x10002c90       0x14 ./driver/Pcan.o
                0x10002c90                PCandomsg
 .bss$comm$CanSendBuff
                0x10002ca4       0x18 ./driver/can.o
                0x10002ca4                CanSendBuff
 .bss$comm$CanSendbuffx
                0x10002cbc      0x500 ./driver/can.o
                0x10002cbc                CanSendbuffx
 .bss$comm$Candomsg
                0x100031bc       0x14 ./driver/can.o
                0x100031bc                Candomsg
 .bss$comm$flash_write
                0x100031d0       0x14 ./driver/flash.o
                0x100031d0                flash_write
 .bss$static$key_index.6293
                0x100031e4        0x1 ./driver/key.o
 .bss$comm$MsgFifos
                0x100031e5       0x1e ./driver/keyfif.o
                0x100031e5                MsgFifos
 *fill*         0x10003203        0x1 
 .bss$comm$led  0x10003204        0x3 ./driver/led.o
                0x10003204                led
 *fill*         0x10003207        0x1 
 .bss$comm$motor
                0x10003208       0x60 ./driver/motor.o
                0x10003208                motor
 .bss$comm$motorctrl
                0x10003268       0x3c ./driver/motor.o
                0x10003268                motorctrl
 .bss$comm$adc_100ma_fd
                0x100032a4        0xa ./driver/output.o
                0x100032a4                adc_100ma_fd
 *fill*         0x100032ae        0x2 
 .bss$comm$sw_diagnose
                0x100032b0        0x2 ./driver/output.o
                0x100032b0                sw_diagnose
 .bss$comm$output_s
                0x100032b2        0x1 ./driver/output.o
                0x100032b2                output_s
 .bss$comm$op_protection
                0x100032b3        0xa ./driver/output.o
                0x100032b3                op_protection
 *fill*         0x100032bd        0x3 
 .bss$comm$SCH_tasks_G
                0x100032c0       0xf0 ./driver/sch.o
                0x100032c0                SCH_tasks_G
                0x100033b0                . = ((. + 0x3) & 0xfffffffc)
                0x100033b0                __bss_end__ = .
 *(.userdata*)
                0x100033b0                __allot_end__ = ((. + 0x3) & 0xfffffffc)
                0x100033b0                __Heap_Start__ = __allot_end__
 *(.heap_mem*)
                0x100033b0                . = ((. + 0x3) & 0xfffffffc)
                0x100033b0                __Logic_Heap_End__ = .
                0x000034b0                . = DEFINED (Heap_Mem)?((. + 0x3) & 0xfffffffc):(__Logic_Heap_End__ + __Heap_length__)
 *fill*         0x100033b0      0x100 
                0x100034b0                __Heap_End__ = .
                0x100034b0                __MAX_Stack_LIMITS__ = ((. + 0x3) & 0xfffffffc)
                0x100034b0                . = ((. + 0x3) & 0xfffffffc)
                0x1001fe00                __LMA_STACK_LIMITS__ = DEFINED (Stack_Mem)?(__initial_sp - (__Logic_Stack_Start__ - __Logic_Stack_End__)):.
                0x1001fe00                . = __LMA_STACK_LIMITS__
 *fill*         0x100034b0    0x1c950 
                0x1001fe00                __Logic_Stack_End__ = .
 *(.stack_mem*)
 .stack_mem$Stack_Mem
                0x1001fe00      0x200 ./system/vector.o
                0x1001fe00                Stack_Mem
                0x10020000                __Logic_Stack_Start__ = .
                0x00020000                __initial_sp = 0x20000
                0x00000100                PROVIDE (__Heap_length__, 0x100)

.flashdata      0x0c001c00      0x400
 *(.flashdata*)
                0x00000400                . = 0x400
 *fill*         0x0c001c00      0x400 

.debugormode
 *(.modeconfig*)

.protectmode
 *(.protectconfig*)

.eeprom         0x7f000000     0x1000
 *(.eeprom*)
                0x00001000                . = 0x1000
 *fill*         0x7f000000     0x1000 

.config1
 *(.config1*)

.config2
 *(.config2*)

.stab           0x00000000    0x37ae8
 *(.stab)
 .stab          0x00000000     0x1788 ./system/src/kf32a_basic_adc.o
                               0x26d0 (size before relaxing)
 .stab          0x00001788      0x4b0 ./system/src/kf32a_basic_aes.o
                               0x1020 (size before relaxing)
 .stab          0x00001c38     0x1f74 ./system/src/kf32a_basic_atim.o
                               0x537c (size before relaxing)
 .stab          0x00003bac      0x468 ./system/src/kf32a_basic_bkp.o
                               0x1038 (size before relaxing)
 .stab          0x00004014      0xe58 ./system/src/kf32a_basic_btim.o
                               0x2238 (size before relaxing)
 .stab          0x00004e6c     0x15c0 ./system/src/kf32a_basic_can.o
                               0x2730 (size before relaxing)
 .stab          0x0000642c      0x498 ./system/src/kf32a_basic_cfgl.o
                               0x177c (size before relaxing)
 .stab          0x000068c4      0x8a0 ./system/src/kf32a_basic_cmp.o
                               0x1f08 (size before relaxing)
 .stab          0x00007164      0x378 ./system/src/kf32a_basic_crc.o
                                0xc84 (size before relaxing)
 .stab          0x000074dc      0x438 ./system/src/kf32a_basic_dac.o
                                0xf84 (size before relaxing)
 .stab          0x00007914      0x9fc ./system/src/kf32a_basic_dma.o
                               0x1c74 (size before relaxing)
 .stab          0x00008310      0x2e8 ./system/src/kf32a_basic_exic.o
                                0xd50 (size before relaxing)
 .stab          0x000085f8     0x1698 ./system/src/kf32a_basic_flash.o
                               0x2bf8 (size before relaxing)
 .stab          0x00009c90      0xda4 ./system/src/kf32a_basic_gpio.o
                               0x18a8 (size before relaxing)
 .stab          0x0000aa34     0x15cc ./system/src/kf32a_basic_gptim.o
                               0x3048 (size before relaxing)
 .stab          0x0000c000      0xe7c ./system/src/kf32a_basic_i2c.o
                               0x2988 (size before relaxing)
 .stab          0x0000ce7c      0xf90 ./system/src/kf32a_basic_int.o
                               0x1ce0 (size before relaxing)
 .stab          0x0000de0c      0x228 ./system/src/kf32a_basic_iwdt.o
                                0x8dc (size before relaxing)
 .stab          0x0000e034      0x12c ./system/src/kf32a_basic_lcd.o
                                0x66c (size before relaxing)
 .stab          0x0000e160      0x12c ./system/src/kf32a_basic_led.o
                                0x66c (size before relaxing)
 .stab          0x0000e28c      0x2dc ./system/src/kf32a_basic_op.o
                                0xc54 (size before relaxing)
 .stab          0x0000e568     0x1758 ./system/src/kf32a_basic_osc.o
                               0x2d18 (size before relaxing)
 .stab          0x0000fcc0      0x360 ./system/src/kf32a_basic_pclk.o
                                0x8a0 (size before relaxing)
 .stab          0x00010020     0x1080 ./system/src/kf32a_basic_pm.o
                               0x2ebc (size before relaxing)
 .stab          0x000110a0      0x93c ./system/src/kf32a_basic_qei.o
                               0x1c20 (size before relaxing)
 .stab          0x000119dc      0x30c ./system/src/kf32a_basic_rst.o
                                0x8a0 (size before relaxing)
 .stab          0x00011ce8     0x153c ./system/src/kf32a_basic_rtc.o
                               0x4554 (size before relaxing)
 .stab          0x00013224      0xa20 ./system/src/kf32a_basic_spi.o
                               0x1dc4 (size before relaxing)
 .stab          0x00013c44      0x630 ./system/src/kf32a_basic_sysctl.o
                               0x1164 (size before relaxing)
 .stab          0x00014274      0x330 ./system/src/kf32a_basic_systick.o
                                0xbdc (size before relaxing)
 .stab          0x000145a4     0x1d1c ./system/src/kf32a_basic_usart.o
                               0x3df8 (size before relaxing)
 .stab          0x000162c0      0x144 ./system/src/kf32a_basic_usb.o
                                0x684 (size before relaxing)
 .stab          0x00016404      0x300 ./system/src/kf32a_basic_wwdt.o
                                0xb70 (size before relaxing)
 .stab          0x00016704      0x21c ./system/startup.o
                                0x228 (size before relaxing)
 .stab          0x00016920      0xb4c ./system/system_init.o
                               0x19a4 (size before relaxing)
 .stab          0x0001746c      0x120 ./system/vector.o
                                0x12c (size before relaxing)
 .stab          0x0001758c      0xdbc ./source/MeterConfig.o
                               0x1a64 (size before relaxing)
 .stab          0x00018348      0xb34 ./source/T123.o
                               0x1824 (size before relaxing)
 .stab          0x00018e7c      0x48c ./source/bootloader.o
                               0x12cc (size before relaxing)
 .stab          0x00019308     0x204c ./source/canreceive.o
                               0x2d54 (size before relaxing)
 .stab          0x0001b354     0x21cc ./source/display.o
                               0x2e68 (size before relaxing)
 .stab          0x0001d520     0x8994 ./source/displayhelper.o
                               0x9630 (size before relaxing)
 .stab          0x00025eb4     0x1128 ./source/eeprom.o
                               0x1e60 (size before relaxing)
 .stab          0x00026fdc      0xc00 ./source/kf_it.o
                               0x189c (size before relaxing)
 .stab          0x00027bdc      0x69c ./source/main.o
                               0x1434 (size before relaxing)
 .stab          0x00028278      0x7bc ./source/switch.o
                               0x1458 (size before relaxing)
 .stab          0x00028a34     0x3c78 ./source/system.o
                               0x4d28 (size before relaxing)
 .stab          0x0002c6ac      0xd44 ./driver/Adc.o
                               0x19e0 (size before relaxing)
 .stab          0x0002d3f0     0x10ec ./driver/Bcan.o
                               0x1e60 (size before relaxing)
 .stab          0x0002e4dc      0x7a4 ./driver/Dcan.o
                               0x180c (size before relaxing)
 .stab          0x0002ec80      0xe28 ./driver/Emios.o
                               0x1e48 (size before relaxing)
 .stab          0x0002faa8      0xa38 ./driver/Pcan.o
                               0x180c (size before relaxing)
 .stab          0x000304e0      0x69c ./driver/Rtc.o
                               0x1338 (size before relaxing)
 .stab          0x00030b7c      0x8b8 ./driver/Usart.o
                               0x1800 (size before relaxing)
 .stab          0x00031434      0xd74 ./driver/can.o
                               0x1b48 (size before relaxing)
 .stab          0x000321a8      0x120 ./driver/canfifo.o
                                0x12c (size before relaxing)
 .stab          0x000322c8      0x990 ./driver/flash.o
                               0x1e54 (size before relaxing)
 .stab          0x00032c58      0x4bc ./driver/gpio.o
                               0x1158 (size before relaxing)
 .stab          0x00033114      0xa50 ./driver/iic.o
                               0x16ec (size before relaxing)
 .stab          0x00033b64      0x8a0 ./driver/key.o
                               0x153c (size before relaxing)
 .stab          0x00034404      0x318 ./driver/keyfif.o
                                0x3c0 (size before relaxing)
 .stab          0x0003471c      0x528 ./driver/led.o
                               0x11c4 (size before relaxing)
 .stab          0x00034c44     0x1518 ./driver/motor.o
                               0x21b4 (size before relaxing)
 .stab          0x0003615c      0x93c ./driver/output.o
                               0x15d8 (size before relaxing)
 .stab          0x00036a98       0xe4 ./driver/pwm.o
                                 0xf0 (size before relaxing)
 .stab          0x00036b7c      0x6fc ./driver/sch.o
                               0x1398 (size before relaxing)
 .stab          0x00037278      0x534 ./driver/timer.o
                               0x11d0 (size before relaxing)
 .stab          0x000377ac      0x33c ./driver/watchdog.o
                               0x108c (size before relaxing)

.stabstr        0x00000000    0x1909b
 *(.stabstr)
 .stabstr       0x00000000    0x1909b ./system/src/kf32a_basic_adc.o

.stab.excl
 *(.stab.excl)

.stab.exclstr
 *(.stab.exclstr)

.stab.index
 *(.stab.index)

.stab.indexstr
 *(.stab.indexstr)

.comment
 *(.comment)

.debug
 *(.debug)

.line
 *(.line)

.debug_srcinfo
 *(.debug_srcinfo)

.debug_sfnames
 *(.debug_sfnames)

.debug_aranges
 *(.debug_aranges)

.debug_pubnames
 *(.debug_pubnames)

.debug_info
 *(.debug_info .gnu.linkonce.wi.*)

.debug_abbrev
 *(.debug_abbrev)

.debug_line
 *(.debug_line .debug_line.* .debug_line_end)

.debug_frame
 *(.debug_frame)

.debug_str
 *(.debug_str)

.debug_loc
 *(.debug_loc)

.debug_macinfo
 *(.debug_macinfo)

.debug_weaknames
 *(.debug_weaknames)

.debug_funcnames
 *(.debug_funcnames)

.debug_typenames
 *(.debug_typenames)

.debug_varnames
 *(.debug_varnames)

.debug_pubtypes
 *(.debug_pubtypes)

.debug_ranges
 *(.debug_ranges)

.debug_macro
 *(.debug_macro)

.gnu.attributes
 *(.gnu.attributes)

/DISCARD/
 *(.note.GNU-stack)
 *(.gnu_debuglink)
 *(.gnu.lto_*)
OUTPUT(ART_BOOT.elf elf32-kungfu32-little)
